(lp0
I933713039668404224
aI2486454853
aI217384535
aI933726086537601024
aI761950040680259584
aI4503676156
aI304303439
aI909715973829218309
aI932837743566229506
aI322403765
aI4748903952
aI926695411779117056
aI570306492
aI2695363844
aI346541568
aI933635977070833665
aI933723982787784704
aI531348482
aI933715094273495040
aI933696790792146946
aI1475292504
aI872389695304458240
aI61454461
aI16601140
aI894645732216590337
aI933676944524283904
aI144615788
aI795715629953191938
aI342238884
aI919116866441895936
aI933668603223617536
aI4582046952
aI933660533781176320
aI2872137931
aI791182402261426176
aI410778732
aI150317364
aI932543976606875648
aI1499420839
aI1260429175
aI2787222431
aI1855024244
aI43688822
aI4440732914
aI186418067
aI2609978929
aI9202062
aI3019190106
aI928299580814368768
aI858948832045838336
aI930858661383094272
aI105130195
aI1144231098
aI932434618992791552
aI613470379
aI100354125
aI761581874850312193
aI932442528426725376
aI164679408
aI933035812391870464
aI877211785555722240
aI14738823
aI13100202
aI2515304890
aI292345620
aI14363700
aI834264826650046465
aI933477428151930886
aI15695595
aI53477851
aI296821652
aI3152139655
aI925518936367538176
aI3171171039
aI2770649002
aI875407002050076673
aI920435468382167040
aI20698196
aI929331150258028545
aI3096431235
aI861614753160069121
aI257338956
aI774260149338988544
aI2583571357
aI2704739194
aI1485448460
aI38218610
aI917054785974661120
aI442465873
aI773893235144003584
aI180646382
aI834128191321145344
aI932986284896907264
aI820542296
aI4073044251
aI2429854207
aI933393492503662592
aI51939782
aI347440173
aI803461466
aI282043037
aI192954244
aI912050406502608896
aI832535382285750273
aI930159188373798913
aI933145544624504832
aI3591918918
aI931034589312704512
aI932653694876823552
aI36646026
aI3393999827
aI181445493
aI616348681
aI933052452496125952
aI943298786
aI933281412488355840
aI286574971
aI933359649360941056
aI41564302
aI2373368081
aI917803951822487552
aI926338519479459840
aI876114180499263490
aI504557296
aI102781667
aI193205407
aI17103069
aI2620462046
aI822140575344394240
aI488482055
aI24551605
aI932662431679111168
aI217751494
aI3095394077
aI2597369108
aI333070659
aI128919832
aI3224303403
aI55599055
aI33168368
aI192814299
aI763696116672192512
aI2591448163
aI186166920
aI933269150490701824
aI845288998373408768
aI29363594
aI933268669068701696
aI73500115
aI771553003
aI930096089318993920
aI4145752407
aI219469245
aI143735043
aI3293344330
aI890689521628704770
aI59072990
aI50962528
aI4856814220
aI1121036528
aI249377256
aI883343505682300929
aI782496296
aI766929860002406400
aI34303921
aI1066280311
aI11756582
aI265822295
aI786572777591480321
aI1421242873
aI2210235986
aI837062665998589957
aI886585476416651265
aI907631478304997376
aI851058348002881536
aI53200018
aI1160551358
aI154557881
aI3041037555
aI933163106062295042
aI68414100
aI703004727114485760
aI785593264296427520
aI932472640014401536
aI454677662
aI2354368922
aI4891076347
aI933128162564698112
aI735468330006548480
aI933107063785435136
aI839850450333618179
aI896868087785340928
aI21844186
aI932158335092187136
aI550932926
aI145983103
aI931907682273054722
aI588966980
aI74440889
aI133628411
aI2342450798
aI855777696529473539
aI87742403
aI161606985
aI130148429
aI932826236191150085
aI2857042822
aI49653237
aI410913007
aI797384661513228288
aI328947797
aI932883817047531520
aI4361928854
aI932391857610309632
aI166138850
aI402363829
aI1400907961
aI933023029617143808
aI4835235268
aI765046077825294336
aI390008881
aI2424806647
aI856860548000043011
aI933021001612394497
aI933018143483510784
aI141857613
aI108409573
aI412275369
aI18013100
aI480786018
aI526802998
aI910784598296158208
aI901931146367430660
aI3045415526
aI1134916116
aI860032148459446272
aI619897298
aI17092253
aI116541895
aI236425796
aI908788325397475328
aI932171536328527872
aI838595104554131456
aI1952334438
aI910067740152680448
aI798413297133518849
aI866318768322080768
aI900679064821911553
aI397070710
aI893012044479320064
aI577412829
aI926886607386546183
aI614136341
aI931216980664897536
aI720666061
aI104876334
aI2953730492
aI921677905834504193
aI3195506431
aI1960383013
aI599069306
aI101685176
aI274958853
aI931480910779777024
aI350871937
aI745481362765811712
aI921462522854694914
aI388272714
aI725473975
aI810875659484434432
aI224628040
aI2797425211
aI720393985
aI63834016
aI930831400080621568
aI907107962438774784
aI931789497267712000
aI163379521
aI2546273534
aI59070812
aI788929530756935682
aI928612372381548546
aI465442179
aI932590541904244736
aI2201969210
aI799829520047931392
aI59856091
aI38415769
aI1121736116
aI922752738760458240
aI865981421273337856
aI813728100898852864
aI806436820980375552
aI924275612713455616
aI775554501482799104
aI925282538968330240
aI4437264675
aI932693350897061888
aI761197447
aI24271168
aI420519513
aI32972922
aI930085506234302464
aI797575050
aI218373728
aI65914170
aI932796944447029248
aI67221810
aI924097241257623554
aI3547907654
aI1354112490
aI931946633037733888
aI110821458
aI3127986998
aI247555362
aI70678429
aI902982498669531137
aI932762139500204032
aI21175542
aI196645047
aI920496741539033088
aI908153311139729408
aI3149520826
aI932764052320931841
aI932753245205909504
aI932750708411166720
aI53266006
aI905701642217046019
aI15275763
aI45882816
aI111773351
aI903420308073332736
aI918962542579511296
aI254598323
aI481717138
aI932728957832658944
aI925226333248004096
aI931841599440609280
aI14400597
aI1038311168
aI4788130162
aI2188521499
aI942237169
aI3254248243
aI920376497315237888
aI419007328
aI26169740
aI3099693270
aI219901979
aI3352163806
aI1580413033
aI842445730782441472
aI3312222221
aI865926473068236800
aI95155269
aI226157899
aI459780723
aI932010472827707392
aI2714122610
aI929055839935180801
aI77511115
aI404990783
aI160089959
aI24081122
aI854064317913870336
aI91185292
aI932691132915572736
aI115194043
aI377492962
aI246824228
aI282850960
aI3403467688
aI275674351
aI35617245
aI3043462979
aI810901674160246784
aI2375883943
aI3020514621
aI535187162
aI916022503763460096
aI39609489
aI4331753963
aI777827164548898816
aI856009183120019456
aI631999792
aI717915486508298240
aI932661071369986048
aI932662295485911040
aI871449536073535489
aI288663006
aI887553518114029568
aI3407362317
aI16394755
aI1022579508
aI2869746069
aI62101697
aI2501188910
aI56519187
aI1329273678
aI928997376508952576
aI14801268
aI591827358
aI932610824178302976
aI931149713172086784
aI37322960
aI267792483
aI56441035
aI1003803374
aI855034252227948546
aI932592011932323840
aI32744826
aI563451230
aI932590117671206912
aI930821245146349568
aI1032570234
aI168027459
aI880052494205943808
aI2739242330
aI2916725443
aI2335250677
aI829294106623037440
aI906062420761878534
aI361253111
aI928629106303995905
aI912220578395824128
aI117738657
aI17055254
aI484657811
aI1341869810
aI913344692300996608
aI908616636013441024
aI932537508373471232
aI1347920240
aI582618596
aI142720786
aI932472602181771264
aI4377320233
aI929919291503255552
aI140918836
aI931721446665216000
aI1018845505
aI901661341122912257
aI53340209
aI791239535602520067
aI31101744
aI3692579844
aI105900265
aI182805043
aI288967350
aI931460947239100416
aI1705295629
aI23478246
aI928642569432477697
aI472365321
aI2322061556
aI918909721494646784
aI932455924949766145
aI2501972550
aI2781657037
aI707107804268597248
aI620173124
aI68298981
aI33936848
aI2872113689
aI871627348713459712
aI931861892640931840
aI930276533859622912
aI932343056556285952
aI581828738
aI240098396
aI838984871863283714
aI851098396551069696
aI3734202623
aI25299378
aI740627920473985026
aI329283816
aI14846427
aI3308120985
aI360127246
aI890616315966361600
aI4119333916
aI931482061893971968
aI915223722478403584
aI18014817
aI140081727
aI186733914
aI888393340508553217
aI893029757377544192
aI468942274
aI340869393
aI2582162397
aI1953626466
aI24979228
aI43574776
aI506027167
aI927241387086553088
aI931845083460132864
aI263110786
aI892534279338643457
aI134618107
aI931933765898604544
aI838407870450380801
aI3734498785
aI270213046
aI4723239800
aI16632962
aI149678673
aI17366570
aI78545869
aI2253193495
aI3162678408
aI99649389
aI931587104873648128
aI854025764056039424
aI907645080353349633
aI793685527857799168
aI123720841
aI237606774
aI550335995
aI2954542687
aI756472006246137860
aI84462231
aI199715089
aI929242723416080384
aI481480542
aI464433133
aI350720771
aI877777983490015233
aI821424633060749313
aI545179864
aI922871623564382210
aI83308423
aI4891862663
aI932176357974405121
aI930954008847466496
aI932143731884437504
aI2568451118
aI320263145
aI62261250
aI128149457
aI932181744836665345
aI2172244698
aI1090298017
aI3230283975
aI2271719357
aI57616108
aI930335537969487872
aI383074844
aI179897111
aI919651197690175488
aI927428599413477376
aI2910459203
aI878270361254723584
aI931187464206737414
aI932123918261018624
aI931885111397642240
aI932096163351748608
aI242704195
aI3320888359
aI4625902272
aI1214784828
aI271944184
aI83277312
aI2786825570
aI743488337109979138
aI776295713055633408
aI230633402
aI70808139
aI932004526416162818
aI928129292717973504
aI2809645756
aI314445989
aI2802437323
aI202477453
aI1939663100
aI160276548
aI703667954920067072
aI2155555879
aI67333902
aI404994723
aI427714690
aI919809331
aI924713216437088257
aI41130764
aI921817600010702849
aI375776964
aI413970095
aI2787208365
aI741889484535500800
aI2420710941
aI22674274
aI47052983
aI407818437
aI930288497683988480
aI622730331
aI163221772
aI842092656230461440
aI884432115286368256
aI485009835
aI931542419211894784
aI869866862393389058
aI1055433710
aI799168201091387393
aI473516856
aI928406721520963586
aI317794350
aI3096168939
aI753851381870653440
aI4782814753
aI376293791
aI14937468
aI246327396
aI352329315
aI2955109876
aI826108376425832450
aI589243014
aI584045374
aI808784454034530304
aI931897921867472896
aI931883770822713344
aI951302934
aI931057989422690304
aI2709759116
aI930345850764693504
aI6380912
aI931486955191390209
aI23186315
aI279467856
aI748436995576201220
aI928532793121898499
aI750595443978014720
aI309153584
aI105364110
aI42135580
aI827466798383534081
aI931837057026072576
aI927462326164373509
aI927641879788765187
aI1395360630
aI239132957
aI255390192
aI427565009
aI1087512062
aI35931526
aI26174705
aI4575032776
aI925270918171103232
aI485506061
aI931747119072866304
aI760864810154258432
aI900718155068317697
aI4911704314
aI856168546551963649
aI781177535136751616
aI2212172786
aI17183901
aI1092468367
aI852809651930316800
aI924314773717598208
aI252934621
aI895907470203277312
aI46805593
aI162628664
aI1724519149
aI890287686845681666
aI930289641055506432
aI930291651066650625
aI556196826
aI912386895593779202
aI931647325755363329
aI928665264648085508
aI227628625
aI2176936940
aI2180155730
aI780911754
aI931454107696672768
aI3395821175
aI776523032659632129
aI840761832524648449
aI3237075504
aI2742427730
aI931649723026591744
aI835921401328586752
aI900176914828152832
aI567685325
aI50727704
aI355704399
aI327991822
aI407292905
aI23040142
aI2885761665
aI347744771
aI926787191484727297
aI927847829569187840
aI871041079310561280
aI931588329648168960
aI247491401
aI2153073654
aI905749700
aI931581074232217600
aI726404533853818881
aI931562710961180672
aI33999055
aI1725325224
aI59544740
aI1358151432
aI872884118
aI163871608
aI141165810
aI826860768549302273
aI50629871
aI2399270528
aI916708410363662336
aI918845642440572931
aI931546993989750784
aI931540880523010048
aI931135835956809728
aI131223416
aI339737291
aI931485003795574784
aI4211608397
aI889779515781767168
aI730691322890199040
aI930612589066940417
aI2906381184
aI799451778764963840
aI27814556
aI99624125
aI2714717636
aI269375985
aI333887649
aI929771298087059456
aI550797041
aI927619085382356992
aI831079170788773888
aI91183313
aI592754702
aI857517844917088257
aI495348680
aI19238888
aI3653485334
aI119092114
aI2373418264
aI2674310748
aI833164607774670848
aI931030805559721984
aI921230311651909632
aI305005249
aI923037509809868800
aI258745043
aI22551897
aI873471819885531136
aI2775852717
aI50985221
aI764721022016819200
aI59709475
aI3338493074
aI765948626690506753
aI931453343297236994
aI209746984
aI42375455
aI820210442677010432
aI856447014438973440
aI634147224
aI31216193
aI55302724
aI298405390
aI33282092
aI1023147644
aI744860247743934464
aI930862187937136640
aI2424970722
aI909056982719631360
aI3287144545
aI527553713
aI1614663270
aI855834577721593856
aI931395394273206272
aI1842867090
aI931392629513883649
aI926557334071054337
aI2469390231
aI3821424641
aI108501149
aI112851137
aI317186033
aI927904401443844097
aI24036897
aI144671665
aI1909030316
aI928650621363806208
aI931359546332692480
aI173038680
aI1226640847
aI926621309408342023
aI874589509018558467
aI15239250
aI2204477700
aI62884065
aI1607597850
aI790254546798858241
aI25263179
aI906179723042197504
aI2526878533
aI803720373929971716
aI275654150
aI3236768524
aI31235283
aI14417479
aI380515912
aI367316502
aI955575164
aI820045531
aI72475001
aI3232209632
aI928534625441509377
aI202776030
aI919104934355795968
aI3102438554
aI2227513038
aI143441149
aI9605212
aI278616812
aI3723022213
aI161863717
aI359637135
aI832010606861496320
aI3697131617
aI4571012249
aI301109411
aI581096209
aI393493458
aI726096405761130496
aI931253851373613057
aI41054926
aI122728336
aI6641312
aI931241854611402757
aI255651358
aI436290883
aI26665940
aI246924530
aI931225266310881280
aI365547487
aI826680980450668545
aI385927544
aI15152626
aI874902706053402624
aI930867182468288514
aI1544375036
aI208153889
aI931229196478828545
aI846717417246068736
aI1921285998
aI56696088
aI931214111593046016
aI740002955978477568
aI786380865039458305
aI931208913692831750
aI263383558
aI730076329782087680
aI1723864909
aI2873775297
aI92629144
aI863680571561566208
aI900385406037876737
aI279136478
aI239497299
aI43354700
aI3092408428
aI355030385
aI1281057912
aI840532652386062336
aI930068533970685952
aI143362970
aI468364393
aI931157791099715584
aI931171192513409025
aI840628178821472257
aI931167296927739906
aI931156494053122049
aI925216771593748480
aI28857491
aI897201772103692289
aI110961572
aI930895170081624064
aI3013228346
aI1183672483
aI2151436850
aI900226646736764929
aI361727614
aI931145683524050945
aI702984189952573440
aI866922000547291142
aI767033439505842176
aI3225399275
aI2515144746
aI1761170616
aI38641588
aI931044481352290304
aI930739513642676224
aI931098956922208257
aI794217976111177728
aI12593352
aI931123628682424320
aI1432301118
aI49641830
aI931123480812072960
aI928626239002304514
aI499956721
aI114489325
aI982968235
aI890802710169231360
aI930348545105940481
aI3594910766
aI295560381
aI802102243281485826
aI862318395227877376
aI920181700432236544
aI931075760172892160
aI40921772
aI75036848
aI931079882213179392
aI913079343106154502
aI2778597964
aI332294132
aI108469271
aI904217693049339905
aI328420812
aI28782379
aI496745299
aI913273315942219778
aI1393319653
aI862542754034794496
aI353228347
aI78020214
aI931030449631117314
aI622898525
aI929569839168995328
aI41937144
aI16267902
aI43472671
aI4005367092
aI217846335
aI880137852108947456
aI975966037
aI930967796506247170
aI3192807588
aI360168314
aI928526251983192065
aI20825416
aI912122136671719424
aI750017876
aI340089513
aI65337676
aI291855612
aI368320761
aI405210473
aI930939768929624064
aI37549418
aI1875531871
aI753721909259472896
aI930804522997260289
aI72685825
aI930909368811433984
aI66489082
aI74062464
aI52857711
aI516672796
aI870355087167811585
aI180748802
aI906063540880121856
aI140863074
aI808618286644658176
aI1404867644
aI930885584209563648
aI911413522747346944
aI14262217
aI806403124927852548
aI1087981442
aI858587999281356800
aI890039318055616513
aI3774569189
aI927707685591572480
aI398107355
aI887249945794822144
aI820207789570195456
aI916530263122833409
aI2675071633
aI606132851
aI154497900
aI923553514172887040
aI2413836800
aI1354574814
aI930697199054393346
aI891565798141165568
aI184871338
aI2792275994
aI823544773
aI95251159
aI425339944
aI1643776752
aI2287061194
aI2699187178
aI930781595153268736
aI800721289207902208
aI14242054
aI887784611001933824
aI89817139
aI723361850998411265
aI3082063054
aI2429543480
aI33821365
aI566131034
aI83806637
aI2537261072
aI746526955185463297
aI915908642913660928
aI304290650
aI929088124864442368
aI910474200485330945
aI195491791
aI920549012998119424
aI294255608
aI930701250219462657
aI885084854370676736
aI927467290748076033
aI422456606
aI463189533
aI3110636823
aI3011796465
aI2809941110
aI930681016326422529
aI2495729232
aI790151
aI2302341529
aI287164748
aI881451412344983552
aI221691307
aI172248394
aI771448870324797440
aI400556425
aI371190528
aI2228372966
aI41787924
aI340681469
aI930458571262910469
aI861587531342766080
aI190799420
aI170979272
aI184163379
aI358299427
aI921556577726763009
aI1549658983
aI861444781892939780
aI3379545833
aI827674812776644610
aI252895993
aI135197368
aI2738965617
aI9010562
aI19173816
aI930596458004402176
aI833522489275850752
aI540781938
aI930587961296502784
aI914555761925279746
aI3112122861
aI867098464580243456
aI4242686596
aI14988296
aI65883658
aI3694479255
aI92949717
aI928799796726521856
aI16500867
aI888178845899255809
aI930218993553756161
aI99192184
aI2692959396
aI2445410371
aI1080971708
aI3532275439
aI458344342
aI810574251531128832
aI828287111891542016
aI21323268
aI187994143
aI3404395996
aI1876650710
aI41361418
aI344603758
aI21890668
aI1282027508
aI449467355
aI105687678
aI9476932
aI926523142436278272
aI49450480
aI390867530
aI184043821
aI930510555110105088
aI27714090
aI929891949234065409
aI116822895
aI41173439
aI62910624
aI924354375123963904
aI899293057316782080
aI845809985359634432
aI927097394897960962
aI261659015
aI204102567
aI1538840155
aI24329220
aI4767556349
aI231703229
aI2295039193
aI538674137
aI3300801901
aI910777143264768000
aI770657628053790720
aI923127310982762496
aI740098769572794368
aI2193046627
aI2776704709
aI3026359060
aI714745455591170050
aI930461276010172416
aI3508039215
aI260513803
aI2478659594
aI45489804
aI380429160
aI16331956
aI930451023247712256
aI889874944196313088
aI77149833
aI864101784029147136
aI866568654112030721
aI160534351
aI99907997
aI589077122
aI77214160
aI2970985404
aI930435469149704193
aI69403402
aI1938853094
aI702795492145631232
aI47662605
aI900651253402923008
aI761915349423882240
aI2771325018
aI740185626985828352
aI929679604029067265
aI3431126249
aI61457469
aI940123435
aI32552816
aI3373696205
aI4547008877
aI882988811126550528
aI14075023
aI372432266
aI498292957
aI3807908236
aI922768719348142080
aI3131091033
aI372795952
aI3052883708
aI822456878630309888
aI852506670
aI54555846
aI123648687
aI39132174
aI731167890
aI891296546884661248
aI577323802
aI2837577332
aI322287428
aI803700403347091456
aI927851842385694720
aI924970246691098625
aI828544617901592580
aI550834522
aI19092798
aI80384055
aI832148328360079360
aI896256362883055618
aI2336991
aI2435118469
aI999775830
aI3167242320
aI2527769371
aI2461720256
aI2589057967
aI921804740488548353
aI41555057
aI2651756232
aI897782701
aI3912670273
aI90519927
aI75231356
aI721998469704073217
aI1684803176
aI929626480124014592
aI930289690862907393
aI155155215
aI930271819847704576
aI83543545
aI9024462
aI96401572
aI1188011630
aI2405957480
aI892866137897095169
aI108110495
aI914031080281395200
aI14625551
aI65982110
aI331419490
aI517737047
aI930235547796365312
aI874401776249827328
aI86550814
aI927790930278547456
aI104837348
aI2955228362
aI928927728404975618
aI558200873
aI930219967626272775
aI390349545
aI924596203194593281
aI4802411
aI3072004963
aI531405016
aI929113867321569281
aI925771457761705984
aI101535425
aI757929883213463552
aI924885227859824640
aI2998577586
aI572470943
aI53011010
aI38391821
aI928767948419891200
aI873253896650727424
aI917466837813665792
aI321359884
aI230288593
aI3981035965
aI100827645
aI918771655484297216
aI2887684683
aI77314377
aI615463008
aI809023269861027840
aI478259329
aI613753234
aI15373357
aI613721408
aI2731250167
aI755619143311761408
aI225993305
aI217109077
aI261057913
aI2466651000
aI930093241470537729
aI3240594656
aI790303514
aI2415901226
aI250881708
aI884920998369386497
aI93701293
aI1249937336
aI102986832
aI3371016327
aI161787936
aI825720224016134144
aI550143352
aI925056035303309313
aI930068712895287296
aI793010784234246144
aI809370609524285440
aI929398638631104513
aI906201480776093696
aI3996328371
aI68778220
aI723251751739097088
aI304385721
aI882739508508319746
aI895891713717403648
aI64498480
aI2338369388
aI22064261
aI373229633
aI923796863085457408
aI592771798
aI2365711494
aI2419720267
aI836564057616416768
aI846730774363721728
aI4383421215
aI840852082160721922
aI914817154050117632
aI2821371350
aI399307749
aI930007446503985153
aI479401779
aI45592486
aI13202832
aI929702481583415297
aI929999831342366720
aI85532880
aI385632126
aI229081867
aI1486053830
aI929767007653957632
aI890099251
aI926345967200120832
aI929985018687926273
aI929976767619645440
aI928524891007082496
aI143597783
aI124379747
aI1340578184
aI456565108
aI1315228158
aI747135492353753088
aI929731347647795200
aI859765366637121537
aI924555331346120704
aI279119914
aI726483329479004160
aI929952210125033472
aI2187610649
aI894073057890807808
aI852585660057702401
aI929936970385473536
aI2292866318
aI1614178136
aI191886103
aI94508138
aI929897323001405440
aI16823360
aI25005030
aI1647933792
aI58149540
aI727477153944625152
aI822769325270450177
aI849915494085705728
aI921724295474057217
aI327061172
aI4680747038
aI26994899
aI528205930
aI14570407
aI287874711
aI240696375
aI97755005
aI3323151603
aI928702454912335872
aI87447550
aI893923044581933056
aI25409824
aI929815067712929792
aI291987281
aI214658048
aI794193011513192449
aI3025106093
aI928048528387166208
aI16981175
aI890040918262378496
aI401726538
aI929776673410740224
aI827877187718152192
aI342594237
aI14749536
aI609737924
aI41096682
aI920958855571423233
aI2908169625
aI929740905459994624
aI929753105297747970
aI4823621399
aI308269559
aI912052037231239169
aI325712606
aI929649233233367040
aI364429826
aI3309305805
aI834795960622530562
aI2909861461
aI886772899935272960
aI1561020373
aI929488955178999809
aI928643471950471168
aI3989763194
aI617443678
aI19583715
aI1301065470
aI776811351280721920
aI528590548
aI824580300667842564
aI849116276601606144
aI912712411039305728
aI256642041
aI2821266251
aI168553386
aI4794763141
aI61472779
aI786207816805593088
aI981218965
aI929242634165436416
aI2997069901
aI826370970688446464
aI3228611629
aI929633631546490881
aI2160827336
aI1654869092
aI20434282
aI39236102
aI306796551
aI76940591
aI3923751857
aI3007700850
aI898158244782264321
aI18790681
aI851800072622940161
aI308033265
aI155300304
aI929589056966725632
aI1327581271
aI928492979798417409
aI929469552693514240
aI2283842101
aI2985824135
aI151998257
aI77264825
aI92512417
aI922883743769018368
aI2478172391
aI3018115808
aI920354351817920517
aI1964308536
aI926243802465144833
aI929519534662410240
aI914281723621408768
aI240380152
aI3309728049
aI2976951699
aI31121629
aI6425782
aI929168903871242240
aI767966870230147072
aI563682095
aI927008994648117248
aI929464738177867778
aI56754901
aI234744939
aI2152574811
aI139831373
aI799809021511249921
aI929438566685532161
aI18831946
aI877549930944049153
aI818401450917326848
aI913507807336464384
aI2426055649
aI758289851988967424
aI1713254442
aI1358491646
aI41557382
aI398755397
aI45530698
aI100279457
aI905179919046627328
aI854456469198184448
aI2160333196
aI929410913798578176
aI149000882
aI766729600244129792
aI927602030792794112
aI793082096143085568
aI929383305136562176
aI422082170
aI859413825870745601
aI743883691529744385
aI926009847287443456
aI217475885
aI964372663
aI2394852246
aI161894772
aI913419524938113024
aI65221155
aI563017467
aI926472801908862976
aI926295378709876736
aI929358555932712960
aI939925910
aI928390937239310337
aI1289810023
aI38756734
aI926898261369032704
aI737084812113104896
aI182432438
aI889201908619128833
aI90269973
aI927973937253896192
aI744933599003041793
aI508157179
aI56666766
aI197867587
aI4266754153
aI783333482864836608
aI2490867132
aI2251333243
aI742703763580948480
aI325650679
aI929287478913069056
aI915319404052623360
aI849840715085488128
aI884648594845741057
aI925007069421322243
aI908278316733407232
aI756094105692803072
aI927875377183281152
aI885839190872563712
aI170824498
aI2530134895
aI929236755450073088
aI3324138552
aI3310419498
aI929218654025084928
aI836049662633095168
aI894870748895956992
aI919800130726850565
aI868017821514473472
aI769828722065022976
aI4736051557
aI57673161
aI2256646200
aI17649827
aI860774486840356866
aI879840937907761153
aI73549735
aI793109568385454081
aI154341334
aI717811954195124224
aI4558511854
aI925479719868489729
aI927950564343902208
aI147129564
aI2782711414
aI143941422
aI928754119006916609
aI48866243
aI910551951070416896
aI469670476
aI37096554
aI232558453
aI251473517
aI22042986
aI4092751863
aI382613551
aI928706410304729090
aI929081136919207936
aI909090602716880896
aI2801628400
aI231832360
aI40991853
aI48868109
aI347351128
aI115861787
aI278853253
aI850284264482459648
aI2535607693
aI922824921423712256
aI929051437216227328
aI278631992
aI2882018865
aI21925067
aI370846953
aI825929434507128832
aI46784479
aI929035361811972096
aI1901100313
aI863425343453003776
aI1286592650
aI928995564447870976
aI929020566132150272
aI159377344
aI700988062038364160
aI3301859150
aI909359925683523585
aI796630481978544128
aI4586779696
aI4463344874
aI308388335
aI330367803
aI486689109
aI314949644
aI1045908085
aI838353127661170688
aI140979532
aI3335521205
aI544348699
aI827278660398837760
aI729241459149447168
aI105068209
aI606867091
aI779052164920606721
aI429741826
aI292351813
aI731025072719302657
aI905123035539283968
aI737050119779045376
aI110333303
aI827736306763509761
aI101551349
aI928944892885262336
aI983421648
aI928943249968058368
aI712202497587322881
aI928933319810707457
aI928933484395147265
aI932067006
aI1515437659
aI2893880107
aI393937001
aI928922130611400704
aI708181517604823041
aI2517488288
aI1078399652
aI464085743
aI863077302128738304
aI718113243143802880
aI2399366534
aI3197312234
aI747770386025222144
aI402202195
aI782546253800288256
aI216649508
aI889634119633838080
aI3061008083
aI781390825
aI701228843
aI1061070672
aI877957234575147008
aI3266115007
aI364624572
aI373970006
aI46316973
aI596926179
aI538607356
aI219687567
aI20211729
aI8259942
aI925539354730221568
aI926255623196381185
aI1969334918
aI727874434426503168
aI3224609249
aI54996613
aI786633197220077568
aI2843438080
aI34681904
aI737085787708231684
aI108973618
aI17380368
aI17932796
aI94586006
aI928065291640328192
aI911668406440558592
aI906775538169024513
aI928751722989793280
aI901435382440620033
aI3153734587
aI3408376033
aI926927401824804864
aI2162702160
aI3235348736
aI31445927
aI231057430
aI769495823247736833
aI927574912687947777
aI2752615895
aI928734958646190081
aI241802054
aI549996984
aI920410153521881088
aI897197223611641857
aI264755726
aI418712803
aI1401308786
aI1225471484
aI556587277
aI532616691
aI20413659
aI814031168744067072
aI927585310350995456
aI928693846598406147
aI710596529535459328
aI2432327714
aI773041039535996928
aI926527241948975104
aI3101811308
aI924398632689917953
aI47481352
aI928602159230304258
aI747713254252756992
aI846867950812516354
aI928676539855712256
aI928669611469533184
aI885540812431470592
aI2677134706
aI4833070100
aI927405283546198016
aI924508890418495488
aI4763800722
aI177389358
aI737291718
aI928636447132934144
aI927916052284968960
aI31362465
aI768478208685662208
aI197484536
aI283486243
aI915513752924987392
aI3535110201
aI2801993421
aI10933802
aI2938030226
aI183687419
aI2220562051
aI174371590
aI3214010670
aI705342399703293952
aI837120956892123137
aI928110507969601537
aI1026406626
aI727137941672321024
aI1068067502
aI135193248
aI2802232192
aI208938011
aI99549561
aI410789094
aI928540003143114752
aI2392092816
aI848081246311727104
aI538525467
aI3330024489
aI28840038
aI2463241194
aI1039745281
aI107226350
aI862259514963361793
aI16448060
aI1359305982
aI928243804913594368
aI775300818966806528
aI2558072335
aI907446529459400704
aI1600543950
aI4242527362
aI928537183429914624
aI372314951
aI928534245936578560
aI857924185
aI477541450
aI19000919
aI1698138324
aI309899756
aI928507087486795777
aI147345862
aI707425119015014400
aI1401861746
aI184401494
aI414987211
aI918800030235897856
aI739504782
aI754652642
aI292084863
aI849341505294798850
aI845142436091375616
aI111632247
aI751143100643434496
aI130437768
aI1684828207
aI393807548
aI928475906510934016
aI200233973
aI928460791438893056
aI18057928
aI133536089
aI911908754370830337
aI98134888
aI722582024821858304
aI928457861532930048
aI35484597
aI3312352756
aI524756222
aI292588297
aI928434728331632640
aI927574175509831680
aI906513631050960897
aI92098574
aI27933086
aI371467439
aI37414567
aI829511038383116288
aI21103649
aI45688224
aI57885366
aI2481987408
aI588456640
aI1700626471
aI237947287
aI1347183037
aI3151972589
aI159084851
aI1885514989
aI1444226180
aI25695707
aI878609756000268288
aI860831239611318273
aI1150479636
aI891836474253029377
aI145173021
aI34990384
aI783275262502895616
aI29308882
aI874323733330178053
aI478435083
aI1352235854
aI928340307602796545
aI927256251469361152
aI1273309124
aI923988053097701377
aI1264470055
aI79729373
aI852391699393372161
aI216413455
aI923785958755131393
aI254233183
aI896060378022653957
aI1173273672
aI837755339202310150
aI111671217
aI94740167
aI368380991
aI73678578
aI195386647
aI2301971959
aI485110214
aI166049932
aI912201614835904514
aI4078334833
aI1662255288
aI908802326416080897
aI93990697
aI928271567104217089
aI44709211
aI705380039399858176
aI140515615
aI227051935
aI761949382711185408
aI396378339
aI1601856462
aI914871967777542144
aI72605615
aI857520785157611520
aI14799861
aI2450543711
aI563541555
aI3266526451
aI928210959633649664
aI20612226
aI399248109
aI928235320256139265
aI927977750463475712
aI45710557
aI214826863
aI445522148
aI2211293341
aI886932211647340544
aI876260412
aI538345481
aI1266617220
aI150952555
aI772304277800751105
aI1228458992
aI826409407139479554
aI1157410759
aI391225706
aI926468133258489857
aI924916704966098945
aI2882397942
aI830665484211253248
aI928165056302399488
aI813976740120891392
aI1402012236
aI259225069
aI168073781
aI926458312832544774
aI4783027512
aI873417479032160257
aI287113179
aI95694662
aI354179357
aI17843226
aI162637567
aI796927407538241536
aI33202098
aI196214185
aI801417102053744640
aI299254202
aI456220313
aI797557619116285953
aI888370892719366144
aI1259660672
aI928085006534283264
aI3186961866
aI847844008781066241
aI497168177
aI2348571025
aI897863453397860353
aI804174301914169344
aI437652743
aI801445900836999169
aI2922114764
aI126776300
aI17464129
aI928045869949059072
aI850823799834411008
aI21501294
aI124726068
aI924422211078725632
aI17672402
aI3109229776
aI821437719691874304
aI148009984
aI454455130
aI2351497350
aI49264631
aI928024272882282496
aI819515076612734976
aI241676314
aI56790617
aI261318964
aI913029493769596928
aI927972292084289537
aI1937358720
aI102619369
aI799961937433870336
aI2876582664
aI104311119
aI3228728056
aI923597002146856960
aI237860778
aI8937952
aI702604625732448256
aI927977663511302144
aI2839344565
aI3111612549
aI905525841689538563
aI567062282
aI784645457825837056
aI359696642
aI100587704
aI873975759391424512
aI844332752
aI2233646784
aI927949322175393792
aI927951169409884160
aI1701015715
aI35485647
aI615992796
aI908067424863494146
aI866597311656448001
aI104736945
aI147602939
aI29787382
aI795767261915152384
aI21414684
aI916529012
aI857957158083809281
aI824659129901817856
aI872639246649176064
aI706613078759186432
aI2839751162
aI914982039220137984
aI352920352
aI1264403940
aI521452889
aI2331717266
aI839122224099426304
aI198847571
aI29446371
aI909686720190468096
aI2462761310
aI924465837808816128
aI27047402
aI24711949
aI725930287138361344
aI2895979591
aI874401650
aI281238633
aI28103900
aI564833176
aI777509261253287940
aI927763971486007296
aI927793159421284352
aI853466626771038208
aI265817204
aI912228144
aI851871903514054657
aI1530310639
aI920970784193089537
aI29046294
aI904600786952323072
aI884389912925044736
aI900366844619616256
aI927459221490331648
aI912592587206254594
aI794236277000458244
aI927510440787234816
aI925038556854153216
aI2974506717
aI925137041309835266
aI708932031820931072
aI917869519191846912
aI902536875210047488
aI927819885333409793
aI916316393989136384
aI922486877260828673
aI352237528
aI715225160328957952
aI867653496073486338
aI927795456545116160
aI17804901
aI824280721766416385
aI927473916464939008
aI1631931270
aI916542487468105728
aI925749370833707010
aI18239343
aI890165674374381569
aI927766731757457408
aI103234283
aI2418129321
aI918108534071365632
aI27659360
aI32789272
aI423213163
aI2309435352
aI849814502388359168
aI927602053769285632
aI916501017419747328
aI2656876166
aI3291436115
aI810863557357240320
aI1258467859
aI23279209
aI854737603278639105
aI408676951
aI921553871964483584
aI4006199121
aI925729625506009089
aI432259690
aI324241037
aI22536482
aI16560145
aI4340940375
aI926465656190652416
aI890265214075142156
aI423366032
aI898522783738724353
aI867167106080571393
aI888577663014719488
aI4707464628
aI2249572490
aI14757722
aI3722094444
aI246864156
aI927623236845785088
aI21026697
aI37733364
aI70024286
aI917859957680242688
aI37003568
aI2870838911
aI38207947
aI1341649471
aI927570968800825344
aI804018504403976194
aI349065064
aI884390590829514752
aI55299467
aI46191795
aI64837877
aI16695445
aI164718490
aI76694497
aI199691987
aI927544368709414913
aI173468962
aI414417120
aI2794189137
aI868535389971034113
aI975732002
aI2750134959
aI879170551511752704
aI334293563
aI791145924970110976
aI270051623
aI552285778
aI93253675
aI907278499802701825
aI72988357
aI926222961190764546
aI112384801
aI394170264
aI2894685038
aI4901522416
aI925669434039066627
aI396943112
aI927216254435422208
aI908883053170245632
aI2577278112
aI66945916
aI273887052
aI3802336276
aI866179986926993408
aI900712724568604673
aI744899025782996993
aI22615975
aI927438922413760513
aI349987332
aI1138701356
aI15425310
aI927433639729676288
aI142536234
aI1699670972
aI848002198407704576
aI3226751496
aI74828226
aI2265004350
aI2993271182
aI353834816
aI927114338225328128
aI924823682727288833
aI980953826
aI804147088783130624
aI102080525
aI34404262
aI156969363
aI858287674427400193
aI446420702
aI14351242
aI2336840341
aI22302302
aI15716290
aI910580517921099776
aI336748135
aI227584566
aI44870449
aI224393497
aI2520922471
aI3134667845
aI809599534183628806
aI749314148761276420
aI23428160
aI887839858328207360
aI171092976
aI927268646438785024
aI927284880836317184
aI919656934373933056
aI927279149001138178
aI879715649878204418
aI916708886262026240
aI916233475459395584
aI143333960
aI924618179372027904
aI1691436181
aI927236665659211776
aI14338005
aI156008395
aI807035087342682113
aI760445039755485184
aI729237716
aI297629528
aI781447697282830337
aI574973302
aI730105945892761601
aI322669873
aI3107689026
aI2518486341
aI423277477
aI2493353678
aI470999811
aI2291021958
aI89994988
aI120362588
aI910286108818276353
aI73216695
aI868307597295747072
aI257415746
aI924157639168212992
aI256718030
aI925851628007231488
aI301659219
aI49396245
aI412939549
aI2539341263
aI927173073106714626
aI919566493574197250
aI562109163
aI416856054
aI66011038
aI3870625272
aI552116392
aI624950815
aI927147039472930817
aI927135222285574145
aI2884784059
aI901981758236884997
aI3332810559
aI889341534449086464
aI311338762
aI2745449152
aI924189938425348096
aI836234830362914817
aI927112222798626816
aI2224211605
aI315934904
aI356702929
aI117008231
aI104408557
aI915682060194299905
aI927027765743726592
aI832699068358942720
aI853913184511676418
aI63728063
aI926549616316899328
aI925782730402512896
aI1639400810
aI4708528338
aI895226670868725760
aI812981350378573824
aI796774065331539972
aI925231990088929281
aI926984302474285056
aI835943101034348544
aI555522837
aI4084569371
aI499476803
aI29759126
aI909276401492123648
aI28623273
aI187911148
aI923748476038537216
aI170918241
aI2394760651
aI21615718
aI2978497468
aI856943935117115392
aI2426561444
aI926896741147955200
aI2862606610
aI926930913157513216
aI870267207724535808
aI2428987332
aI2332427461
aI2361137410
aI812152213304934405
aI742794515723980802
aI329506411
aI45420879
aI133261348
aI901637810725244928
aI251924369
aI1656175616
aI918401619485585408
aI18586618
aI559586398
aI926609290957328385
aI570367075
aI898553062041804800
aI320738469
aI17865753
aI732484956
aI3007962952
aI92964967
aI356810652
aI806131423
aI902157346201358336
aI755930802
aI2993144739
aI3287086100
aI4765518036
aI900205661035868160
aI2486000233
aI125596941
aI2841086211
aI170661675
aI2914958102
aI926625851470467074
aI469184736
aI782795611
aI723665414815776768
aI913352961979535361
aI304167354
aI926710777444155397
aI926812700461629440
aI1927053446
aI733333920775843841
aI17807688
aI145971081
aI903270158919012353
aI1433611008
aI882273763865362432
aI890663717326782464
aI2232889934
aI464641460
aI2583423115
aI1640403109
aI924873014746816512
aI295671415
aI891154032
aI3043729375
aI3979596018
aI3469331546
aI1475331996
aI914439015948062721
aI924170924735078400
aI282736721
aI740777973603831808
aI479600113
aI96321523
aI842194234811809792
aI63779496
aI55390096
aI1143986366
aI1662772560
aI15919874
aI919124584573661184
aI946460539
aI860198917
aI914914659588874240
aI3131829784
aI317709743
aI224512623
aI172954541
aI919597486255128577
aI53565253
aI179916725
aI1218469388
aI46684767
aI926579055192817664
aI149234423
aI339744844
aI3055685795
aI1419150115
aI950433043
aI2703415395
aI3006772954
aI763376084498911232
aI2362205164
aI835415299604250624
aI1398206083
aI2778853666
aI32272255
aI27231862
aI926517826290151430
aI721618259888484353
aI1171951536
aI266932833
aI926484529782710272
aI926496645629579265
aI383999426
aI633493203
aI726220144448540672
aI633033690
aI897175912411746305
aI917681132753256449
aI59294602
aI841636869838385152
aI846438462270136322
aI919185242602160128
aI898651439748313088
aI891564710524588032
aI925034526501302272
aI2835057522
aI826180100148383747
aI17895004
aI880419104
aI79230854
aI1210618183
aI926441220011905024
aI332113991
aI926449760977989632
aI522530410
aI3479954353
aI122409650
aI219401375
aI18620284
aI926409509265985537
aI163774996
aI926412299048337408
aI14188412
aI1634304601
aI1443434570
aI23848505
aI2787788445
aI569317748
aI83618949
aI892710705274781696
aI23917810
aI923888691533168645
aI713598739
aI904922303191846912
aI127144180
aI141463625
aI160666061
aI899090517119467520
aI785818341449404416
aI702548563331383296
aI76032279
aI844242178536824832
aI30181287
aI880784293361930244
aI849582900106240007
aI4135704676
aI15262611
aI924321984347025410
aI916537410254651392
aI19104889
aI95189646
aI926124879925035008
aI4906347799
aI4831571140
aI926300667647373312
aI45641191
aI1106597263
aI385020129
aI385755696
aI926273795995918336
aI74191469
aI258170917
aI3064932183
aI797015983093186560
aI1375102364
aI424397372
aI926213822569992192
aI39436595
aI359009458
aI868638834753449984
aI926195741281878017
aI801159089787174912
aI926079382317424641
aI864874852913754112
aI925456460611571719
aI3360058211
aI905880930958663683
aI272102312
aI877546690332512256
aI816716459434905600
aI926106716776697856
aI210475066
aI920044375308226560
aI356344920
aI2898392643
aI192159836
aI4558216753
aI500118234
aI413808538
aI848758996735598592
aI154037278
aI2231575250
aI926109989726498816
aI386547752
aI822776391829716993
aI920888749487263744
aI815116545869434880
aI3168484885
aI913371323942019072
aI3254921729
aI14160607
aI168046208
aI86098886
aI111763376
aI594467394
aI104608215
aI4787888833
aI926108368183463936
aI926103725063786497
aI545343541
aI924953327502106624
aI14979836
aI581870710
aI847193041270161409
aI925897380016328705
aI20466521
aI925370731680141312
aI926078403601666049
aI705051173649309696
aI784103764445827072
aI3549780494
aI909735964473462785
aI76682949
aI926060443017281536
aI926055184115040258
aI922805086891384834
aI1903818164
aI110425921
aI75230478
aI879798008778567681
aI2656777916
aI926042313352081408
aI4637751673
aI865617959699578881
aI873227918092234753
aI2664623197
aI74215455
aI3408257183
aI1372124834
aI916941488352722944
aI408704814
aI1529655169
aI1895019836
aI84502800
aI925987552045256704
aI919763448862355456
aI1261969380
aI921770378
aI1070999174
aI196751370
aI858424361212104704
aI925966669612118016
aI507419132
aI2831316733
aI921575021587206144
aI4345895532
aI26440623
aI855095580
aI28506029
aI158261503
aI925782852960055296
aI925942409489469442
aI55204504
aI884646670134263808
aI2331706796
aI920337640557305856
aI830480627271139328
aI2821010593
aI921229769320022016
aI113522745
aI44256720
aI792959558
aI925883232910012422
aI893135194173079554
aI908177360771354624
aI2169106688
aI2184673249
aI36962286
aI925802139473055749
aI254636836
aI44333
aI156005263
aI703970099473031168
aI304543157
aI90474399
aI868722886500077568
aI4383398134
aI15443530
aI836753901709713408
aI863277684
aI918543207583109121
aI925805266112671744
aI112341122
aI925786083916255232
aI323699425
aI1636296343
aI1688148404
aI1561283274
aI518075340
aI1433910990
aI23037498
aI802328557963923456
aI2934118338
aI3880270214
aI4797600507
aI93995422
aI3494409328
aI924523758144147456
aI90024047
aI877901086518018048
aI822421906569695232
aI344826767
aI142709986
aI919455643412480000
aI816596231648591873
aI3404370333
aI925726115871813634
aI843301460
aI317698220
aI755305388677877760
aI769275784821346304
aI795490262579613696
aI4073787622
aI75075948
aI410787410
aI907061524027523072
aI516936880
aI153850238
aI2884707504
aI766269717438951424
aI920562296811900929
aI735032690
aI868114365769232384
aI49368836
aI839275058661101570
aI455537232
aI4473135677
aI798880932207935494
aI148562959
aI913001883878400001
aI2526834742
aI609908955
aI915889675281338368
aI1629756722
aI925076961596137472
aI1726028864
aI923784778444402689
aI881953951381409797
aI624392905
aI367897829
aI50880182
aI88550806
aI191764601
aI925174591349170176
aI2528743869
aI359131406
aI516139934
aI889345147699306500
aI921199722613886976
aI2822327594
aI925524532177391618
aI2923544316
aI765041039233081345
aI925529095273824257
aI2479229544
aI11071002
aI27975465
aI190718516
aI2534883332
aI877845274303102976
aI2513855264
aI220167536
aI149614999
aI625414054
aI43064877
aI101336261
aI4879120623
aI904273805358637056
aI925447159692087296
aI903100349950468096
aI974572614
aI439572561
aI925390313681760256
aI200154858
aI4860030564
aI526770453
aI881783231380684802
aI239516335
aI1034330539
aI411360519
aI213857458
aI3295860209
aI1102952732
aI110213520
aI910440604672303105
aI2314537812
aI53787777
aI924697548501258240
aI3449432054
aI869080379608764417
aI4815773021
aI259819760
aI3102099170
aI917126546321797124
aI2890708377
aI119391045
aI2271979502
aI571011639
aI915900907602116608
aI1128713598
aI871487195546353664
aI2758484732
aI887685736761360386
aI3872342532
aI2383969964
aI2997141547
aI576983145
aI625435129
aI858568168201228288
aI1009723592
aI1873173888
aI915000237143490560
aI918217402134953985
aI374612990
aI716172008
aI53151851
aI22634359
aI1970143549
aI2479972183
aI545304168
aI274207085
aI925356068594704384
aI98446187
aI146001768
aI388793946
aI2859744647
aI568992208
aI895664730488143872
aI794088049
aI890562651096526852
aI45165938
aI2342240472
aI753897468195135488
aI925319286352171008
aI890277263631147008
aI72519621
aI508984484
aI917059506319822849
aI2410894081
aI2425211298
aI3945223884
aI14109438
aI1490124224
aI901233066
aI922354202088759296
aI16416329
aI925254895661228032
aI580265883
aI15936428
aI903278949567930368
aI50975610
aI921237530372071425
aI925254974002446336
aI2916762038
aI918032235554467841
aI824453312892272640
aI745358215
aI1474375135
aI797113235057078277
aI716115468134658049
aI49276328
aI2333427224
aI624395100
aI843358713629065216
aI17396848
aI145321547
aI19115363
aI904762308173471744
aI925179952613543938
aI591434779
aI79473462
aI99943024
aI155423824
aI887497162224828417
aI20915873
aI2352954974
aI3238014769
aI975043442
aI384309510
aI825110557451808768
aI218429157
aI836983965336526848
aI803960277658046464
aI400884545
aI1491755635
aI903786159318466560
aI920733256957521922
aI775107545841164290
aI6516582
aI17140422
aI93460388
aI738288092893880320
aI719713648638345217
aI925109811720675328
aI855047231317184512
aI14176392
aI376264136
aI867088881341972480
aI446565596
aI758581475629498368
aI178361101
aI2202666386
aI917733583963295746
aI908918076367765504
aI869208509916774400
aI2696788248
aI260230964
aI131132597
aI901149737558179840
aI925065520780578816
aI1028380640
aI745356979015606272
aI869494643708350464
aI841823768280469505
aI139871486
aI19796121
aI456012667
aI322179239
aI910159540494233606
aI60657110
aI4644990197
aI312067242
aI56139604
aI924541789817659393
aI797792
aI920726994060500994
aI843073410586431489
aI1969544359
aI15236338
aI924898744864092160
aI924745897614987265
aI903466236352151552
aI469079029
aI72131690
aI4463037925
aI930314006
aI745421718064271360
aI3779555718
aI902073978
aI73195292
aI42671737
aI2748528517
aI908789959838126080
aI924514449985191936
aI808017607
aI919887297528713217
aI473004421
aI897650419744354304
aI924954649697730561
aI2364630463
aI924257226432434176
aI924253505224953856
aI134735442
aI493264719
aI924179195378446336
aI924886922882834432
aI924279459632447488
aI508233935
aI882124711873740800
aI793041645474291713
aI8330232
aI3919328952
aI776686735
aI923708880
aI924902292129595392
aI3572823014
aI2540819983
aI3714440477
aI142034499
aI66039402
aI127667994
aI86388776
aI47073459
aI904753895670398976
aI866179922426871808
aI886646666639491073
aI563020869
aI161440184
aI705388743159492608
aI763766116724318208
aI923327246995042304
aI867719625567596544
aI924446474552991744
aI921054257889071111
aI75600412
aI2211560571
aI1879840980
aI3300917699
aI733848484969779200
aI123262742
aI129091251
aI793952543567183872
aI2231042181
aI4182835521
aI553745765
aI826524653103439873
aI4737525322
aI924369336294244352
aI1886194220
aI524812549
aI396257405
aI64351531
aI824795325277884416
aI20721183
aI2682383677
aI852536896731439106
aI894189482781454336
aI378679648
aI924715387756822528
aI2449437210
aI793098507162783744
aI21282222
aI371855514
aI1551260352
aI130579975
aI823351905799782400
aI3164161234
aI180776000
aI4798039934
aI923179548945956865
aI924267705271697411
aI828559368622899200
aI247395471
aI75153073
aI924669189876482048
aI350066721
aI66981894
aI99714667
aI924633240027066368
aI268386975
aI924645864575926272
aI922368986708246528
aI789297722859880448
aI840418111
aI151434981
aI2541502253
aI733020307502563329
aI37628462
aI923733471469584384
aI894808238218035200
aI3230403388
aI1324516536
aI36116918
aI3812692816
aI445499376
aI830563117272698880
aI4689395785
aI2363159283
aI96251795
aI24438968
aI1076371326
aI921114299405303809
aI924104423747362816
aI2687164064
aI894812508099411968
aI289890694
aI209996775
aI2286846026
aI2239375118
aI56058637
aI2186904965
aI921962400085151745
aI60336689
aI70882081
aI882913062130417669
aI882399312055087104
aI772052617648148480
aI923525829933531136
aI26880179
aI2370381015
aI233325308
aI4028897534
aI918476397546389505
aI794669
aI15861292
aI42746817
aI4541069897
aI447522127
aI2271846715
aI902805635095445505
aI1584877297
aI44153497
aI45241138
aI53619012
aI146469080
aI918459577015861248
aI767112738023682048
aI924394982563344385
aI3487809618
aI918010008100470789
aI384618782
aI2754050672
aI194192721
aI3318078239
aI906833858695389184
aI916277074238812160
aI923674074798211072
aI854042511597240322
aI84884334
aI901900397031383041
aI921127562981642240
aI3315179496
aI924247811763216385
aI29532689
aI75980420
aI907348179913502726
aI2613717150
aI773932249
aI1869367086
aI137633437
aI908266980276191232
aI752659390730113024
aI3247691432
aI1422438679
aI463215797
aI895889344447361024
aI733309063618924544
aI826872295
aI885767978020515840
aI923629210136186880
aI2291589924
aI36469716
aI86098652
aI752106039990820864
aI891091495318630400
aI923924368933183488
aI882051739
aI103928327
aI2176173468
aI885230275315347456
aI1324857445
aI200006438
aI904262447736819713
aI18921322
aI94984454
aI896813964599885824
aI1741021
aI924241599533633537
aI707382012131336196
aI924196203142709248
aI907644575996633089
aI3081503153
aI922516188726464512
aI921344851714519041
aI288176400
aI345642910
aI858401271870619649
aI561393938
aI882588960576417792
aI857191848422641664
aI2655425870
aI922546858324402176
aI146909747
aI896604599477567488
aI211671695
aI1454657874
aI292842073
aI164600564
aI201532652
aI2789289860
aI350186525
aI402822521
aI1364991860
aI924093533442727936
aI922274938345603072
aI172247874
aI7877342
aI917699441456500736
aI923708607891374082
aI759168490980777984
aI2378922193
aI923140812556439552
aI211364511
aI919780215189991424
aI883805736442093568
aI770022474822062081
aI45623739
aI1251860011
aI772961942
aI914592841816580097
aI122218263
aI924018840039591936
aI924016121954652160
aI923967087185465345
aI872205684850302976
aI258118372
aI2292376293
aI346612930
aI3404274447
aI923740975721312257
aI910968051583127553
aI2181045924
aI878241220874653697
aI909049458603827201
aI923955621531213824
aI910263452488396800
aI850539338
aI35830258
aI32870684
aI738634644141318144
aI923926175889715200
aI118907234
aI146632410
aI923976372158189569
aI725927011873484802
aI922843586898436096
aI202166673
aI3236216820
aI3698504238
aI2404333119
aI2222508731
aI4111968429
aI61615177
aI922612764316663808
aI4729971563
aI24558136
aI923913184301535232
aI123002215
aI371560143
aI267469612
aI46814566
aI904952357569544192
aI3234133299
aI393944544
aI3186875077
aI923911959724077056
aI14543415
aI704133630
aI823363917049118720
aI922879981666975749
aI1267364168
aI2936970156
aI19257243
aI1514081173
aI923599050049331200
aI80953192
aI2830064030
aI595851150
aI10630
aI75819486
aI1629791700
aI35627433
aI85742386
aI410464601
aI770413417584734208
aI923840781051236353
aI3302656665
aI214296088
aI1304736990
aI97105676
aI862653423522656256
aI59584109
aI1054617308
aI923465465539760128
aI923840438003306497
aI2737580669
aI3002811520
aI756660592073728000
aI912629402948825089
aI142579415
aI171649631
aI346579483
aI3013281528
aI24059230
aI923794986100973568
aI923808220744953856
aI921912044328071168
aI1469664548
aI19892840
aI24125082
aI808533104860270592
aI1328940920
aI714457014361927680
aI923763705267007488
aI2257151046
aI902239813587177472
aI102609370
aI790507282580725761
aI906731920687583233
aI311985191
aI125964885
aI121101123
aI831257102756757504
aI43239192
aI40233800
aI919608066789666816
aI1244073908
aI297001731
aI2248764235
aI1102106454
aI896467809470783488
aI3438801305
aI65108418
aI74385371
aI916863368996249601
aI1852780058
aI1201297622
aI857020654675275784
aI57382487
aI923696354618114053
aI492611121
aI923365194717216769
aI191543005
aI177500126
aI2181244008
aI41018351
aI923682086116122625
aI742322971591729152
aI922918735677132800
aI59658565
aI912761079293284352
aI923635821600759810
aI894931168587530240
aI2895903608
aI2345718031
aI89987282
aI267156364
aI915834992260997121
aI3251748670
aI55547379
aI895731653217198080
aI836983500183986176
aI16460210
aI387591983
aI921920097949696000
aI918194731036958720
aI914499593806782464
aI16259973
aI168655198
aI472278808
aI35212729
aI914893992340402176
aI2316612104
aI922931808102166533
aI923593748642193408
aI865120063283642370
aI729763814
aI792510222912917504
aI277942915
aI148298463
aI3091532224
aI61486580
aI921587831230758912
aI844021773280731136
aI17676481
aI923579417179410438
aI914240622864855040
aI2990481547
aI74115222
aI102599114
aI819598945294766080
aI923571638121013248
aI860071533594771457
aI347121385
aI3159350802
aI69486165
aI221064359
aI1041706284
aI758682960
aI4047901575
aI3415963161
aI38711555
aI795337838778793986
aI59786767
aI2867298212
aI4238586794
aI862163292
aI2800277190
aI445392830
aI182838720
aI815340079967338496
aI892983795665616896
aI276873090
aI77255388
aI923540051992100864
aI23050642
aI67852313
aI916694362423037952
aI832960872138027012
aI1934003946
aI227316881
aI915630359202586624
aI1393630262
aI795946415759519744
aI870583108738744322
aI4873716759
aI36063583
aI286823680
aI353136993
aI30632799
aI875734393326780417
aI2746573079
aI841658213468635136
aI282687754
aI2324390038
aI903941079296331779
aI880770082238066688
aI1093114076
aI2957442439
aI72197085
aI793816838719307776
aI887217539301998593
aI1019521754
aI819855864974675968
aI82302092
aI46443297
aI922460399408156672
aI891641425628205056
aI923465141886300160
aI748904718278230016
aI2938605634
aI15820127
aI1568512074
aI898102902077534210
aI818532603707858944
aI3069306543
aI634304051
aI4073882187
aI1209533420
aI1860171654
aI923423901199273984
aI187165933
aI923043975967203328
aI878598737748086786
aI163902709
aI850195790
aI88704215
aI2175282002
aI101678504
aI232467997
aI923370402948231168
aI923385279695634432
aI2319194791
aI2750849782
aI2799661616
aI922477994865606656
aI22957661
aI865671047202439171
aI349531752
aI137261325
aI923313589540175872
aI193102941
aI910862211559706625
aI2200683696
aI785301280826667008
aI374170801
aI857279172997074946
aI483451464
aI236517811
aI20581997
aI834252412642680833
aI907472623847669760
aI208919172
aI897281106449444865
aI91114816
aI777521671255326720
aI1664995586
aI60982547
aI921211512248713216
aI105809482
aI922839129477574661
aI810939357779623937
aI38553809
aI900095126399197184
aI809513943077154817
aI169890624
aI259859376
aI2543388528
aI903169543786385408
aI4459124902
aI632105640
aI3179394230
aI2657499052
aI923270215454031873
aI848969655473639424
aI2607855139
aI2419251828
aI832676917551599617
aI842932264631652352
aI17129466
aI918763140246048768
aI910956780934615041
aI97901671
aI54303308
aI180130218
aI923248361875976192
aI732621331146133504
aI916913850808623104
aI802909114997215233
aI862950076007817216
aI547657072
aI2225374732
aI142282224
aI81703680
aI818321494774345728
aI45195808
aI2963546425
aI850181353706532865
aI90436289
aI914670781476610048
aI3248633288
aI55689569
aI352922883
aI27091930
aI2884187638
aI480740788
aI318458846
aI191674855
aI923200127782834177
aI197858032
aI906075889385050112
aI192268958
aI14855086
aI791582312
aI2821117149
aI771487821446144000
aI4072149983
aI4827908258
aI162263682
aI922784566024208384
aI4872079971
aI824194234282635264
aI920932789079498752
aI24946260
aI904361039583686658
aI518015801
aI4062740487
aI335922280
aI295467455
aI24679525
aI918589452221665280
aI3497892915
aI902691776321990656
aI78573648
aI17005119
aI3718491
aI1533924138
aI921547617523421184
aI2878472976
aI6376702
aI77998885
aI791944577556983808
aI923131724422410240
aI323952634
aI3321537674
aI635266838
aI19600505
aI867695309698334720
aI818491243013488640
aI895622532136443904
aI816721870246526976
aI2827918801
aI915141625864753152
aI904686333070909441
aI900762876129951744
aI431790312
aI518402451
aI55279860
aI922821446010851329
aI808915740
aI2393177835
aI194728872
aI1454318318
aI1270560534
aI2271033133
aI892736462868815872
aI571519403
aI155298409
aI148673411
aI858100283171233792
aI271447521
aI381323506
aI845800184
aI132241768
aI58385930
aI914492546809724928
aI1731455551
aI78277517
aI3086228938
aI2513461273
aI336284442
aI401248718
aI304479376
aI2594354660
aI911646992786276352
aI154555798
aI64481385
aI921691683535732736
aI36580875
aI770742284
aI923007579902566402
aI252214080
aI14579161
aI830585709614374912
aI268999603
aI32917497
aI748421899689000960
aI82376086
aI780475893114298368
aI52899659
aI16886504
aI432399902
aI3181192920
aI1354797050
aI1948331287
aI792379386976624640
aI731656961763213312
aI3038560488
aI893690713250168832
aI15467414
aI702186457889280000
aI847678811353169921
aI593503124
aI751935729782124544
aI922875963922403329
aI1212698636
aI922928099993489408
aI922926489699360768
aI905143800707809280
aI143719091
aI2563881278
aI900410015219154944
aI834324153150869505
aI19251945
aI16706937
aI417971353
aI116971695
aI353335085
aI717070237200486401
aI94058092
aI59412043
aI855144247284166656
aI1889520600
aI2544123566
aI1631868746
aI823325494821031936
aI906170636694839296
aI304813340
aI12856402
aI2188783776
aI763497206955515904
aI787353632312291328
aI113112498
aI15895324
aI848503430
aI298969729
aI342160375
aI40133501
aI33736710
aI15977312
aI801196068
aI895991824493445121
aI723548809
aI922860078998237184
aI1694464904
aI516798308
aI854342327862788096
aI838939104809259009
aI701129647
aI3146988835
aI83594049
aI468494216
aI284093301
aI922727140159901696
aI2317138902
aI871610610076745728
aI126004582
aI74736255
aI3064304686
aI918438058902597632
aI48674843
aI769609
aI459724091
aI858055224
aI979135063
aI20601714
aI4305834612
aI796664168258695168
aI922806181093142533
aI635485675
aI922692652721627136
aI259231467
aI74833811
aI902872015727599616
aI153356674
aI921827127246442496
aI315008757
aI3392343383
aI910799030132678656
aI901790186
aI922764699090997248
aI2574486203
aI918392227642081280
aI262841547
aI892067551685070849
aI1060869602
aI922359478174941185
aI2609411946
aI922735339457863686
aI77979741
aI234527900
aI835013588
aI920542823354470400
aI11403052
aI2327432117
aI317398308
aI709313293245030400
aI922490435724906496
aI843559852010037251
aI58771968
aI3305149497
aI922705097804611584
aI307279192
aI922533111690416128
aI570974096
aI922377777331937280
aI1343224668
aI384687047
aI101735892
aI10708212
aI61069386
aI2330357748
aI789587649086496768
aI86532477
aI126847412
aI428523632
aI922660407264739330
aI921589809927409664
aI594302498
aI877297608892526597
aI716954494815240195
aI194441261
aI829238245
aI3849389602
aI1710963828
aI831910504679538688
aI921470106554822657
aI846695121135550466
aI122390935
aI4894676856
aI186662038
aI19653972
aI921111344979382273
aI2243988024
aI823252701421125635
aI1152734822
aI505309430
aI1649231406
aI293612272
aI896812463756374016
aI899670017922310144
aI156802395
aI177571402
aI4869620163
aI278747561
aI2716952002
aI16114635
aI922496643559288833
aI2830808444
aI922557063775047687
aI193517259
aI4541185992
aI922552252958629888
aI194796955
aI695523843335520256
aI273630529
aI841599770095452160
aI379766233
aI117394255
aI922536319812816899
aI2653603056
aI4096835548
aI722298676299870208
aI922508500403675137
aI1696238887
aI917455438530170882
aI919967121790132224
aI799339319592910848
aI912756084355604480
aI2247929742
aI858383460
aI44124491
aI922511619665596418
aI797446318058770432
aI920364181488132096
aI141003765
aI996197916
aI2966044960
aI1608507990
aI895210389792862208
aI327379861
aI3018079100
aI3286476319
aI3946212645
aI922435243495145472
aI1850340043
aI2572039500
aI40271991
aI309592847
aI26141388
aI732141019114930176
aI370494387
aI831224777490698242
aI22007610
aI495125898
aI853816502239330305
aI71442276
aI57404457
aI945563882
aI1583109367
aI900367286518861824
aI1327615200
aI76720209
aI907913527066873856
aI157287773
aI921798870027288576
aI922411832446410752
aI896681307329122304
aI922406861772607488
aI4861879085
aI921094403053244419
aI6913582
aI783356326193790976
aI26670307
aI766967348725178368
aI634432117
aI60824013
aI749202520103346176
aI2650891963
aI767420603888304128
aI556894523
aI897232448706285570
aI870807075017834498
aI372337269
aI194614885
aI888741910340292612
aI1130812183
aI572795963
aI236861636
aI36983973
aI922314868115558400
aI66796381
aI2904804612
aI278237531
aI125522696
aI707365527841218560
aI14110075
aI921175965975371776
aI3425999217
aI869372845
aI782193883786522624
aI2950573122
aI799099177066037248
aI921398319842242561
aI2500794276
aI922260191462281216
aI473012291
aI624051137
aI922218093891457025
aI468953959
aI126077465
aI5875332
aI839053112803405824
aI27164678
aI852041606584647680
aI2984436250
aI838217008118444033
aI221224711
aI134914944
aI3069563237
aI103338270
aI1071544992
aI922168014841221122
aI78055424
aI920837964954992640
aI3363949623
aI922006113691807744
aI921953044039811072
aI407112515
aI7831482
aI707991813534179328
aI4673454151
aI3484528217
aI777546386267136001
aI826400039207583744
aI31086269
aI1413326748
aI1914229592
aI977178764
aI256025449
aI921661149938159617
aI3716643978
aI922107781917872128
aI921404563378360320
aI145161560
aI30670267
aI345078535
aI734379740191203328
aI225517078
aI229031573
aI922126402345951233
aI3418709663
aI1008552974
aI200808995
aI554610285
aI70848690
aI390473308
aI4901813411
aI836087685265645569
aI1620553614
aI860445551057190912
aI3321572248
aI918802932992114695
aI56899472
aI456660666
aI810243116112498689
aI361214757
aI41480561
aI761092911698092032
aI450123630
aI913801902919266306
aI521261802
aI14397648
aI922039613610479616
aI798137118191030273
aI18081940
aI922030208630132737
aI748273596452212736
aI118265331
aI29500269
aI2780355826
aI794226170783027200
aI16460481
aI390829337
aI2221194037
aI1035577669
aI58807757
aI705166545266192385
aI187217284
aI2267548483
aI914059540244480000
aI620573563
aI2983528144
aI4915230588
aI830278882813210624
aI825200591617941504
aI1378065150
aI253916402
aI494464444
aI735830157966123008
aI921916449677037568
aI864229380838567942
aI2284498400
aI907685602501345280
aI835910557488279552
aI3176670341
aI4479738079
aI441802266
aI116699483
aI171892410
aI83990302
aI51419866
aI921449749341003776
aI2723545687
aI921871395730071552
aI902723127288922118
aI859383686248189952
aI71370140
aI895809055670796291
aI1495486770
aI921845335139409920
aI1330217592
aI2213455196
aI592173705
aI348680252
aI2187696679
aI71405547
aI15936429
aI921816489749082112
aI200627501
aI3224556392
aI261378233
aI316862392
aI33465612
aI825029559355527169
aI164173477
aI921795862765830144
aI430526406
aI431299329
aI921778431938920448
aI3288083506
aI920438616853229569
aI918591804290879488
aI893583183630835713
aI109209761
aI921753850800832512
aI616488222
aI792021499360272384
aI751633178
aI1063567284
aI904502777845600257
aI70695288
aI84906591
aI921750205745078275
aI884778259
aI798503914656047104
aI928306178
aI53686269
aI764937309582131200
aI373178885
aI783729644742803456
aI954188192
aI16287511
aI514989145
aI1974766297
aI51732014
aI21394422
aI3243672342
aI531386594
aI921676721581187072
aI921674604703236096
aI921208770704871424
aI916182245798498304
aI921670581908594688
aI716192255732793344
aI921672509405171713
aI919901663724371968
aI777941000241156096
aI921284390654763008
aI100550287
aI717009056813162496
aI912189691427831808
aI939512228
aI1226717144
aI750923569710915584
aI3377228379
aI921570744340905989
aI919442502112833538
aI712170065035005952
aI788656298783014912
aI481438649
aI2953256578
aI313396018
aI148921187
aI619508843
aI261309285
aI511390514
aI919367159695806464
aI58562254
aI1531377751
aI474945525
aI163706130
aI732139187768451072
aI877896305623916544
aI156271689
aI312618004
aI861175322007314433
aI430570281
aI78282121
aI866631523
aI921324580526018560
aI2214773559
aI2936995612
aI728307328357785600
aI1915571718
aI854158107546603520
aI755857632926261248
aI479856553
aI742810530482622464
aI859745659666169857
aI920093542315413505
aI124019979
aI921419911347531776
aI921480264886362113
aI3053755550
aI4377808773
aI1498950546
aI496482912
aI56366858
aI2452847030
aI1422302942
aI920053604349829120
aI54930623
aI834844187325513734
aI836519368846516225
aI921386556350455810
aI124746556
aI1356436734
aI885219929519251457
aI82881704
aI920758296583311360
aI1027307982
aI921085961232101377
aI3103010871
aI921442819667054592
aI41212123
aI77303316
aI827302134039343104
aI920407864597815296
aI918272086149402625
aI83138341
aI921427983549771776
aI258599623
aI886503781566865409
aI910728534406189056
aI103989292
aI845281431916032000
aI52821766
aI156984210
aI3060487355
aI4915609801
aI737755164111601664
aI2282228767
aI2832022854
aI379788104
aI921401058861051909
aI75949082
aI87487642
aI47460695
aI3689934073
aI395258621
aI809059390326194176
aI779139798116229124
aI916343478359126017
aI849524262302044161
aI177644001
aI9254132
aI49846771
aI168815211
aI1895225725
aI3887232797
aI920696966719213569
aI86651441
aI921357120280387584
aI3792011555
aI461206584
aI3309172337
aI881185183919165442
aI65906485
aI702501332368953344
aI808266525236789248
aI888317379830329344
aI791679829728985088
aI796591170747006976
aI268389046
aI376293235
aI864524102
aI818364551922143232
aI921305113616142336
aI1713052490
aI1634951611
aI383077881
aI127904584
aI904715060890787840
aI552774638
aI795605098558877696
aI62077926
aI4559138481
aI2891039660
aI912685092425945088
aI890317161830334464
aI823917732332703744
aI2492576108
aI301416394
aI919437154241015808
aI1681334634
aI355309648
aI847831575098085376
aI2596553144
aI921041629380669441
aI733370071
aI906851209947922432
aI897011002000257024
aI2508375535
aI1344894242
aI14619630
aI300893389
aI2518415870
aI252993609
aI4462396169
aI27897237
aI921185357416108034
aI1475251374
aI913491951013564422
aI916082019381202945
aI256148853
aI921146553829429249
aI39860895
aI905935685194055681
aI770645504296296448
aI921151549442854912
aI1450006944
aI146051769
aI55074921
aI37692150
aI319020263
aI2821971455
aI69528528
aI822990911269388288
aI14287839
aI1868640798
aI904030896449310721
aI95968527
aI900822048339091456
aI2701564382
aI761612631874605057
aI616288841
aI719000214850252805
aI359051488
aI334736904
aI399859877
aI844786006842753024
aI60593795
aI18628202
aI860659274
aI466877918
aI469024230
aI596596417
aI489908022
aI2981191669
aI3148094631
aI60490342
aI58787722
aI2436521902
aI921053301440835584
aI81015182
aI791602529402556418
aI3339949426
aI3299493551
aI2992359156
aI2841659009
aI2341428523
aI899376919468281857
aI920097769100070918
aI888860529770586112
aI921034360589029376
aI921029842702950401
aI58368087
aI2801018030
aI722052300135612417
aI3121391107
aI702108064598638592
aI964670298
aI1463715397
aI112277130
aI358552050
aI742302461134831616
aI918842783418368000
aI161706657
aI2658223498
aI728700053481766913
aI704323802516295680
aI3958489453
aI800255498666676224
aI920979151426859009
aI627561430
aI895559605
aI556247144
aI117218938
aI1437144619
aI920074979726671872
aI745162039308345344
aI240266294
aI745879968
aI919871957457424385
aI832065649845293057
aI919767351276421120
aI909385145173585920
aI920921953946492928
aI920918892318461953
aI122980147
aI66681657
aI4155583792
aI1168749920
aI908306647751073792
aI137009420
aI3578868492
aI3012014247
aI322390653
aI16722501
aI4102760536
aI920574697615499265
aI910124708116525056
aI6040432
aI917386554280239104
aI1627225202
aI920851146834526209
aI913599567689539584
aI4428972979
aI1371131648
aI2938932562
aI770099699248488448
aI817152727771820032
aI832630827393507328
aI920836788142399489
aI108657646
aI920714229853884416
aI172768083
aI709659762326016000
aI92309704
aI266695671
aI816318810856640513
aI700389678768394240
aI1386713888
aI191557485
aI27922157
aI1216857440
aI871368614489862145
aI449933587
aI23381349
aI208477589
aI2263959427
aI920788689306947584
aI2722833542
aI85746207
aI17871918
aI895365766295564289
aI919479072543014913
aI2834815404
aI29407432
aI920767778365362177
aI886660345825292291
aI278608795
aI884242100
aI272031047
aI471165101
aI920739101220966400
aI894981889978748935
aI55891470
aI917471543386624002
aI15774855
aI1038502711
aI15475006
aI920749704689934336
aI36219193
aI903338908875927554
aI786239698494566401
aI2908387807
aI126029868
aI390306843
aI919700137127002112
aI593879635
aI1466875946
aI206527308
aI1453148707
aI920723683777433602
aI884793251856867332
aI566868417
aI48193748
aI738140280
aI1507944415
aI258255817
aI558131722
aI23551203
aI920688333314854912
aI431986170
aI178587595
aI726784341129437184
aI29413859
aI2583457974
aI920695773771177985
aI872582176549859329
aI14108290
aI864455928451661824
aI2510658315
aI553423103
aI94900198
aI908345146504306689
aI918615749710766080
aI920682910147141633
aI907900625639403522
aI920691687009251328
aI748235568702619649
aI114569616
aI712238002462859265
aI127051744
aI897733738402127872
aI21559698
aI52867838
aI920666298048241665
aI461378092
aI807231672693485568
aI307084713
aI3924278301
aI3762877877
aI120793851
aI920659113272643584
aI42367862
aI19409826
aI920653155473461248
aI53558914
aI919945383299637248
aI918798113229459456
aI17560962
aI828999695217393665
aI2831338229
aI186691530
aI20905970
aI384431484
aI4447562315
aI920617071733542912
aI20904649
aI162827509
aI557516918
aI1189721196
aI84792155
aI427051408
aI907325409007734784
aI1583389838
aI102839289
aI55526478
aI920588603931185153
aI920586501628493825
aI2542973742
aI881155521486737408
aI333085528
aI619397468
aI916285206449008645
aI579587110
aI3398847958
aI853726441321758722
aI920556769457315840
aI571821906
aI3322651783
aI442058893
aI920496488718909440
aI390018831
aI845222156
aI22893910
aI241721611
aI549202924
aI51164199
aI44578171
aI3096006327
aI920222179697946625
aI129910834
aI710760415802859520
aI798874039272034304
aI4815779183
aI94584799
aI90213276
aI738410599
aI3168551558
aI856943223608152064
aI14760110
aI920225888909668358
aI902323696697696256
aI77364083
aI2285890801
aI2717142329
aI877939605219291141
aI3085807395
aI34550868
aI15013415
aI920068229120196608
aI332070662
aI34939677
aI888342168548515840
aI830202345413701634
aI919953836399308800
aI197550968
aI920422761113276416
aI748143271629684736
aI16493814
aI240730368
aI573040771
aI498110855
aI2889419373
aI615185936
aI718293108
aI3030651099
aI788011428607393793
aI1242341082
aI878577275167399941
aI107882876
aI59094915
aI3306339108
aI30117198
aI14130577
aI152243215
aI212877631
aI826990901046214656
aI19680772
aI14916411
aI920353633836982273
aI909399392792272896
aI117220227
aI920335571100291077
aI475760256
aI826018075787026432
aI1649603203
aI2724926702
aI763311408092184576
aI920332558763790336
aI917706547597402112
aI104469199
aI2833562214
aI856052258785460224
aI290177596
aI39169304
aI920291313333035008
aI382820072
aI920313113542643714
aI134417046
aI176042355
aI19357972
aI1937114688
aI920300445301690370
aI874144921459990528
aI120135957
aI2492927791
aI74026323
aI2243537717
aI602269823
aI237747491
aI898562908036124672
aI969927007
aI919920607675871233
aI858787682411044870
aI788356475412439040
aI385575863
aI22125001
aI918532906456420354
aI22133589
aI2558699878
aI920154609192243200
aI468693735
aI1415952834
aI68815105
aI3662976372
aI920256081330429952
aI14966325
aI920236901134630912
aI53047564
aI916970927732146176
aI865557547083677696
aI2350572463
aI15093239
aI214014406
aI920233941893877760
aI151071130
aI918324484137934848
aI2579154656
aI201810231
aI224100812
aI919848516314370048
aI88536289
aI2715378996
aI524234407
aI920180013219028992
aI919822715200069632
aI908697599066198017
aI920165442915680256
aI1647681356
aI753235315523936256
aI2375156930
aI3171870128
aI777289125682491392
aI2600863092
aI98221678
aI920028497074147333
aI512411519
aI113375115
aI280131920
aI779015392081485824
aI111267819
aI920123835227295744
aI2901717934
aI2984506851
aI917977979975819270
aI909196164293111809
aI714693824
aI2392128788
aI3130316957
aI704212555
aI2337453444
aI23577236
aI186332858
aI1054214150
aI905787939556229120
aI379498373
aI132653210
aI49342759
aI919926606105317377
aI161747218
aI876223470635409409
aI71628762
aI3408669095
aI890922531963768832
aI900474811138420739
aI909627404917731328
aI1208074442
aI58992195
aI1666443126
aI911272016673738752
aI3464365941
aI27415772
aI14305837
aI1455567451
aI1612425276
aI920036032594276352
aI932523396
aI916966933324591105
aI4850461632
aI236191788
aI2411233454
aI29696488
aI1398094831
aI910045614049652736
aI919803120208658432
aI184698816
aI258746395
aI3177088847
aI824302855238586368
aI2153842932
aI18748093
aI2576691577
aI845640240
aI3483910522
aI4779432157
aI894393110993752064
aI919987598105378818
aI1331104806
aI365159834
aI919987311068065792
aI287866074
aI45787276
aI103302805
aI495108863
aI14060146
aI913577403171180544
aI182025817
aI32430888
aI584008573
aI1308056491
aI919955188215177217
aI161774415
aI919955402158235649
aI3712252153
aI919949691101569024
aI3886556473
aI480845373
aI783480191569895424
aI45918218
aI869588185025826816
aI127619574
aI788336369898758144
aI2668490966
aI3191025717
aI707194067608731648
aI919185822754017280
aI919923826414309377
aI22778647
aI3424493818
aI23491199
aI919817242132463616
aI854686426293829635
aI1100038242
aI919912217474105344
aI857306031403274240
aI4784556007
aI3293083086
aI919904148291833856
aI620529034
aI66419984
aI702472523292606464
aI3186832638
aI1347098904
aI912722890029539328
aI746788546829295616
aI4702502310
aI397114603
aI800037497891917824
aI177055899
aI919875388389580800
aI980394324
aI730017352654438400
aI3066097193
aI1133784930
aI159938953
aI917598406968672257
aI1349928823
aI3346414072
aI800003490818953217
aI2654189424
aI217083508
aI835310764932087813
aI919849212761829376
aI3024385516
aI731586671402094592
aI1492319546
aI111486490
aI911086711924338689
aI793920528708870144
aI56077811
aI182140293
aI1884127544
aI1530968426
aI881963400464666625
aI39959430
aI115497075
aI161135471
aI102632769
aI894450049895194626
aI3364277146
aI318735048
aI4286655733
aI1121824315
aI298844450
aI110626119
aI917907966858231808
aI78732998
aI905144241697021952
aI895676857009324032
aI115185486
aI181081268
aI1456293126
aI919548870635421696
aI809507047796412417
aI918903795513511937
aI919438736945008641
aI873573500740653056
aI4189409482
aI911229942515601410
aI244854250
aI3890234113
aI284533219
aI279136073
aI912432630288801798
aI172354296
aI2538270737
aI898500156815011840
aI1528266985
aI164950647
aI42638646
aI2777966257
aI558765281
aI2742783076
aI303304735
aI293283352
aI414186251
aI636796693
aI4807967832
aI1928637044
aI1668840110
aI704991845
aI919576625699786755
aI212024652
aI907251728239775746
aI919035493022547968
aI341230185
aI120544000
aI915236417172799488
aI919538176200527872
aI754332062740582405
aI919547509478797313
aI2325637032
aI1446684079
aI897262122220097540
aI282180614
aI918289525436243968
aI919277956446478337
aI170755697
aI38405914
aI16547271
aI551195169
aI918596132531515392
aI865975732651958272
aI2163406075
aI239970201
aI1720070737
aI14805221
aI141202493
aI959699749
aI914391362258190336
aI889248046160195584
aI40462454
aI919443284660850688
aI915747801681715200
aI194928179
aI3915035952
aI3021502002
aI519003370
aI4210237513
aI938566572
aI919387857663311874
aI909072032968605696
aI16509549
aI3324629841
aI910405544480997376
aI77446172
aI66161138
aI2766625298
aI2815055715
aI405214011
aI733829284305850369
aI913837196267933696
aI1156429272
aI844214376047566848
aI36038153
aI895738670476648448
aI38406257
aI24890123
aI900831805267464193
aI1650669918
aI231018115
aI53148951
aI919277485669408768
aI2464532053
aI915795934541373440
aI209577106
aI223647810
aI819518147115958272
aI863165639208435712
aI919240779243098113
aI194186326
aI44308375
aI786549182907621377
aI917020518347268097
aI916242004555603968
aI3866347114
aI828177716843266048
aI2788312526
aI1936813004
aI2554255376
aI99687959
aI19135555
aI113731941
aI866258898549850112
aI103776280
aI3594997759
aI1940212548
aI868185030585090051
aI1142297870
aI389757257
aI901024323951112192
aI2315181379
aI824249233523941380
aI45090564
aI157759394
aI2748455120
aI799311277105577985
aI90283461
aI917764859319554048
aI915233963634917376
aI919144372725272576
aI917707201770393600
aI307714600
aI885954280422653953
aI3252650057
aI2894490298
aI24650758
aI810402608057827328
aI769748094
aI767555245211652096
aI23062740
aI873713338345070592
aI919058136912318464
aI1024869276
aI919045859911786496
aI897462575956406272
aI19140839
aI918970256114139136
aI918994041831694337
aI919011024707076096
aI561423736
aI139265924
aI268067273
aI2465782567
aI120234248
aI32303229
aI509535017
aI910561732048728064
aI803806309871067136
aI15856090
aI151200102
aI1500597895
aI939350720
aI553563079
aI561553429
aI56725995
aI827956058714947585
aI24931597
aI786680059600011264
aI66475803
aI723188209
aI233661056
aI883664110235287553
aI2220110712
aI73653611
aI2978767582
aI6063492
aI3957685553
aI3304740200
aI832050887048695808
aI3131407936
aI53790616
aI2953249857
aI820711844285480960
aI364314346
aI828709332887932928
aI826921401080614912
aI918819737483862016
aI872219901481684992
aI844294609647943680
aI918890472814403584
aI840496840319610880
aI1154411053
aI21022864
aI858786346109947906
aI892795240091877376
aI910484261689491456
aI1883532464
aI918871169939390464
aI17164122
aI708642309085093888
aI914185004464386049
aI917746203701403648
aI408566273
aI471967466
aI27474339
aI156534403
aI4845859814
aI36438540
aI918846270323671040
aI918835427561410560
aI918845346180227072
aI58694612
aI2807002748
aI95764519
aI420963251
aI1697015234
aI106170455
aI610986170
aI918502020562194435
aI918810139699892225
aI905372021927718912
aI589873550
aI2491703052
aI2986097794
aI900250264405454848
aI526582425
aI23515630
aI1877420767
aI714207052885659648
aI4502885068
aI918752133473886208
aI827466684306841600
aI313212035
aI2274908035
aI918033221421551616
aI889780253215817728
aI871077662785142784
aI562696238
aI978567607
aI1225047037
aI4238438835
aI918730197284765696
aI85451478
aI918721396326375424
aI4836370052
aI619865379
aI3097829768
aI3244827745
aI768436758
aI918669551235207169
aI2838956089
aI796105422486831104
aI3338140265
aI79007218
aI84094255
aI2996044704
aI34053679
aI907758299335974912
aI248439104
aI625605735
aI1161461875
aI40877282
aI255600067
aI335429679
aI6557822
aI4612033396
aI3941996893
aI49633213
aI744647095
aI918596189313994753
aI3107744215
aI235899075
aI156997379
aI2992800331
aI914779656091521024
aI275216686
aI1425106033
aI183358491
aI2540845518
aI701973476400197632
aI377497645
aI22613390
aI914031969159090176
aI35781134
aI2533193850
aI894334664206200832
aI772627378015199232
aI3466602376
aI31398321
aI783695038899449856
aI45818287
aI886234669536210944
aI226290723
aI790754330483822592
aI2312300798
aI760095985
aI856533358591004672
aI918527737450594304
aI394290836
aI461239624
aI1252535072
aI249363049
aI2833227182
aI22022889
aI780436676392816640
aI917769284666847232
aI2151744270
aI918455533253873664
aI764454544109608960
aI182962153
aI90909755
aI146150738
aI918495122140139520
aI915336700309540864
aI905516229212991488
aI918470127800156160
aI758556715117842432
aI918486362470350848
aI227153575
aI850321080518672384
aI935604229
aI2222010870
aI907305334204764160
aI53015393
aI2166574951
aI273595724
aI494192390
aI404800697
aI2215555776
aI901136202467815424
aI883439993452146689
aI887507756768387074
aI899324319456800775
aI239682930
aI4656169104
aI170731959
aI1392530604
aI796650812369960960
aI911779375665655808
aI51560200
aI860537043549433857
aI4900104995
aI918189379075665926
aI2246283583
aI918426966541393921
aI29191760
aI45510998
aI48806995
aI398149579
aI731752402286743552
aI755270256977809409
aI832958528444772352
aI886867986316972032
aI634560124
aI885754343915433984
aI3329464905
aI71810668
aI764275115693486080
aI918353168383148032
aI916722332911226885
aI4798562527
aI796404510520471552
aI127871579
aI818660936814690304
aI568353364
aI905624535373938690
aI23314861
aI501344391
aI907291363888287744
aI887483051768516609
aI918282889644580865
aI2894427703
aI2846987907
aI14097018
aI730144304434384896
aI831220603793371140
aI918198603105087488
aI6428992
aI156157512
aI764303331959246848
aI97282622
aI4729965740
aI821575094
aI176247384
aI22670525
aI75091770
a.