(lp0
I3233282490
aI847086373559427072
aI850565958242635776
aI850571956113899521
aI2585313743
aI214277674
aI850564535467560960
aI483202415
aI850559322832633856
aI303632765
aI1575211963
aI2419557338
aI371108589
aI257683790
aI850540565313794048
aI221460197
aI578423152
aI850536617336987652
aI18215772
aI850538984023261186
aI3158540030
aI955609178
aI154490597
aI115566149
aI830095890320859137
aI850522571837628416
aI848335085917032448
aI577323802
aI3663847633
aI2773024506
aI850515619984297984
aI850514149738258433
aI19491835
aI598005985
aI1658216492
aI1199045611
aI3438682091
aI701010598415339520
aI806862394819547136
aI15617626
aI2292575986
aI1852046120
aI850499575521476608
aI326706952
aI4907021419
aI15747867
aI770387540054605824
aI183287361
aI821404826172960770
aI582354069
aI3245178515
aI846375764702347265
aI850475876835655680
aI850473222696992768
aI442823894
aI69461574
aI64432496
aI120154868
aI45510413
aI850462918407618560
aI2350692108
aI3412343879
aI850457116066422785
aI91044307
aI2661139074
aI4359227712
aI558856921
aI2467022124
aI130580698
aI37972945
aI850439413637238784
aI821558147538178049
aI8246672
aI822772521758031872
aI4215007758
aI850442025061289985
aI3050029785
aI2532028403
aI283757019
aI414579145
aI831867607527653376
aI20625740
aI3145400607
aI110556221
aI142394224
aI799602912557023233
aI3113985903
aI96783256
aI37884118
aI138068711
aI816345221499916288
aI847848341933260800
aI2196375654
aI108147985
aI1630679077
aI850398368346107905
aI738373276922220544
aI850402516160438273
aI58010571
aI50264321
aI2312886525
aI592469002
aI743651947886977025
aI157665400
aI848616155191422979
aI1212034520
aI2595244832
aI746688175754608641
aI3664404675
aI849753876479848449
aI326396512
aI850387979210194944
aI842769467276976128
aI49401126
aI43736985
aI2349138320
aI588731249
aI850378550846910466
aI812359514091438080
aI847099393899679748
aI767192385314967552
aI92336521
aI811291742200733696
aI849645092277284864
aI3320432161
aI788230732648808449
aI71160055
aI850254216643854336
aI499229033
aI26084950
aI843574166800551936
aI39046520
aI167157688
aI168770867
aI802763024046161921
aI777446319845761024
aI850224715557818371
aI850355252368986112
aI155574086
aI92332044
aI4804307357
aI832053355245559810
aI850343696109359108
aI837646500024852480
aI1921266618
aI382441654
aI130791544
aI850330999879720960
aI801650654800277504
aI18307830
aI849952173832237060
aI850323341902827520
aI850320229989322752
aI3193747671
aI3322920480
aI3067416949
aI766157786820571136
aI848692810991759361
aI850309039984590848
aI2409161528
aI563443018
aI565737260
aI850293391770476544
aI823785952271335429
aI1773392966
aI731602642795954176
aI3163655060
aI2938077735
aI214809761
aI850287955625291776
aI850249510907330560
aI850272825684316160
aI262195597
aI488802767
aI2821101519
aI2337949543
aI849397872542003200
aI850271699899531265
aI719869180720345088
aI848897201824608261
aI21716485
aI4643491513
aI2328744433
aI846285471659544576
aI4773359653
aI822769777676611585
aI91429362
aI850249897743835136
aI767810068783960064
aI814817513422856192
aI755402563
aI16251579
aI785409678129987585
aI850250180758691840
aI2359407475
aI794431449608884224
aI840099264340488192
aI850241564408336384
aI85333504
aI850242172980912129
aI768572264170258432
aI732151649528074241
aI726597368611655680
aI850229743093899264
aI848421747330170880
aI547805997
aI2427063870
aI850037876800667648
aI793598257574404097
aI22065288
aI826651337257578496
aI809522730244734976
aI754927088591704064
aI850225009163247617
aI184982546
aI785345236172099584
aI846782149437149186
aI849301163187073026
aI1341186853
aI17891608
aI819489200433233921
aI811771683321196545
aI20382160
aI186690672
aI104270184
aI2360290278
aI72580618
aI850164138483396609
aI202887876
aI477272868
aI111162738
aI16746260
aI17788302
aI850182864066953216
aI4751361314
aI850186993854173184
aI2372232535
aI4057603227
aI825238774275776512
aI342106231
aI333907948
aI93887895
aI235758184
aI62217074
aI109824369
aI472246357
aI3383554571
aI1541571080
aI1966931240
aI26829916
aI836041429013131265
aI1553971789
aI796350667153514496
aI844831236388352003
aI70770567
aI2585610930
aI4211225853
aI711792469189332996
aI818372
aI849291080717742082
aI850127870697496576
aI823983902809358337
aI820782114564087812
aI850125080650797056
aI71947678
aI841737152698449920
aI52859347
aI987050168
aI849300030934659073
aI1708508028
aI704000733109198848
aI798981036038356997
aI90914492
aI370967084
aI1462765980
aI430544439
aI809503504729591812
aI311061888
aI23169178
aI244023710
aI217321446
aI344130609
aI809557677953208320
aI2905431061
aI156834738
aI210530254
aI2394827028
aI844920162096726020
aI849744939693072387
aI740492742606913536
aI849376441590587392
aI843983590316638208
aI3011999277
aI2747080702
aI53763253
aI850076949707972608
aI850020452013678592
aI2541577879
aI3066703952
aI850070504992108545
aI2958595863
aI386732008
aI574001206
aI94233512
aI823076131213574145
aI812372979166289920
aI850063915442728961
aI799691983530799104
aI828680612202561537
aI735823944897429505
aI4735457367
aI849664325308514304
aI2256510310
aI3220517678
aI849242050235170816
aI406830327
aI24445717
aI845416386478387200
aI282989971
aI197169100
aI42458825
aI4852171092
aI2294895241
aI811218407416795139
aI842462690274643968
aI850043798226960388
aI3170342600
aI694668534761148416
aI2912085312
aI202896493
aI850039596356423680
aI1169398760
aI205927113
aI4461056991
aI158139384
aI531611598
aI312395878
aI2203064861
aI848606713066512384
aI2350596818
aI32753711
aI824699509083172865
aI911722182
aI2500199022
aI850014958175657985
aI837760100366364672
aI845511681677545472
aI849618486771023872
aI850006649620242432
aI439573622
aI1382108082
aI816186573087612932
aI849996030439567361
aI17870495
aI768409022621970432
aI174235262
aI2301374966
aI474126654
aI478732758
aI963089840
aI3115383143
aI170518662
aI2676395963
aI848775777340579840
aI100606959
aI3094594941
aI2986794342
aI767023845668597760
aI849980574961815552
aI849982397722632192
aI849974910327947264
aI25136114
aI2483655727
aI287071194
aI3322081192
aI3801054017
aI14506230
aI952261068
aI767880693984690176
aI226495659
aI340336691
aI3073489625
aI4872079971
aI2342944692
aI3351699683
aI835289433360355329
aI823895752095076354
aI22248749
aI2549281240
aI847912213511684096
aI101817150
aI22604830
aI4053357983
aI842412912668991488
aI849947425896714241
aI2607723960
aI244776692
aI2210231590
aI72526830
aI117141270
aI43332698
aI905093719
aI426514115
aI2276927948
aI37448045
aI841286999608872960
aI258457440
aI131836578
aI848915884248662016
aI1074491748
aI2925582505
aI270419095
aI187069103
aI2521467933
aI2883252566
aI3946809210
aI849916802868162561
aI828568078556549120
aI849136781568073728
aI2731131626
aI67630095
aI2398521932
aI727416771955810305
aI3433395140
aI849907294821167104
aI186393983
aI3030771172
aI2378465862
aI423142379
aI601677196
aI568910950
aI849182904609632256
aI834977626708115457
aI849885935412150272
aI2792100962
aI849882136303722496
aI1559701340
aI847392896231686144
aI2843287254
aI849878922938417153
aI849879853230718977
aI44349615
aI17831742
aI90634090
aI4345298834
aI11272742
aI849857098724761600
aI828885116692865025
aI110677241
aI816484243970912256
aI782928837864624128
aI362147374
aI805123216486395904
aI849666092440051712
aI849196446842834946
aI903246222
aI46807157
aI503423015
aI1417180112
aI2926190387
aI15978166
aI76317788
aI849824985442951168
aI720839264305487873
aI146896305
aI849621953749143552
aI849816911680421888
aI1335621037
aI1340966280
aI30655539
aI849723350117081088
aI1963779312
aI2432250548
aI810969004915511297
aI2995347709
aI1141721892
aI3313001683
aI14862592
aI83929579
aI713129661
aI740297442017435648
aI175589110
aI102016562
aI849760453643313152
aI307373757
aI222260802
aI823579507579727872
aI15587766
aI102720115
aI730785872
aI244026865
aI389544877
aI849755052403113985
aI230946350
aI849747367331024896
aI849742485526126592
aI2853414772
aI3297885720
aI415405914
aI45203067
aI53197425
aI837062413115604993
aI4658002294
aI20582669
aI843594897982738433
aI800752839098175490
aI849727856942866432
aI849551414904967168
aI184872712
aI481608475
aI849676093737095168
aI842437988722311169
aI599443840
aI2992474522
aI41733593
aI366811688
aI849307202510893056
aI849697657748631552
aI848359328
aI818917312543657985
aI836830414266314752
aI849700143968305152
aI17578294
aI720283692740947969
aI848956248603086848
aI3044918387
aI822085274545061888
aI770745745565683717
aI3350962288
aI340947574
aI2396503874
aI822949660126040065
aI2996525778
aI96403503
aI64094022
aI393838976
aI278731499
aI849644305840865280
aI849296915149844482
aI2874084455
aI141140645
aI21727247
aI716571959283294208
aI849671160266665988
aI849669998926856195
aI1860959958
aI1070973498
aI849666523593678848
aI1254636648
aI848910216938876932
aI2925516822
aI27928883
aI265663154
aI4061966173
aI245637690
aI74907711
aI2748087197
aI846766549990035456
aI2434711195
aI3660
aI715658955733618688
aI26834307
aI2604205482
aI725350006308249600
aI1019767302
aI1133487588
aI849640872622698496
aI842139073036865536
aI115388507
aI432910792
aI108635591
aI233196645
aI740644519096508416
aI26924136
aI81626984
aI838746306411573248
aI816565525400735744
aI698716591417126914
aI78722574
aI88991702
aI2161925816
aI706340008152555520
aI4062573207
aI1187760031
aI2789774782
aI47194102
aI261558897
aI849615409020116993
aI849615359216934912
aI849614213458927616
aI386217948
aI796758330584735744
aI806950462637256704
aI453125939
aI155907881
aI849583478945566720
aI842038186259951616
aI843469646539890689
aI141696978
aI466072010
aI525452203
aI848560321530916868
aI849596162348863490
aI835023639720308736
aI144830927
aI3996205408
aI796062366777622528
aI498188417
aI325273014
aI849574790818091008
aI391212388
aI2240748246
aI2747271185
aI849583207423115269
aI2946729638
aI849564306140213251
aI352109771
aI826802118975696896
aI849503277091885057
aI39583997
aI816961058120179712
aI3120901829
aI761021236621156352
aI185316911
aI2811665390
aI97708222
aI2359446036
aI238541058
aI1927278822
aI834447849005969408
aI757387189
aI807125951481933824
aI820626121662136322
aI3153938804
aI766511991561355264
aI57286452
aI207090133
aI775735067960160257
aI823400180099596288
aI111560231
aI135669968
aI1379424788
aI278587195
aI849289817401831428
aI845642646647422976
aI67881577
aI725533675576659970
aI849517294464233472
aI46903505
aI2659230110
aI849519175030763528
aI742963184143872000
aI849516174010462208
aI2647340508
aI290032517
aI849511976363601921
aI208094561
aI849503262793400320
aI191768147
aI223413203
aI1175221273
aI134397215
aI341432527
aI760332445631721472
aI2864266310
aI607275001
aI523058223
aI2842606982
aI1639521114
aI115870045
aI2588894060
aI1639365247
aI212394094
aI1017615193
aI849456997426745344
aI193241513
aI141644500
aI2935177603
aI849451236264955905
aI846551563757850624
aI849441492389306379
aI2357864742
aI2813934116
aI849439862591823873
aI1063472630
aI3016546598
aI2296981992
aI811008930927112192
aI2649981163
aI849417116260454401
aI842547962706239488
aI96767322
aI42547674
aI53955984
aI114588922
aI35491179
aI834621778462781440
aI774266194832584704
aI3738816320
aI829788318959288320
aI849382174721789954
aI15456578
aI161366723
aI831319130213117952
aI2872396587
aI10420142
aI164299018
aI294100766
aI819356413608591360
aI17626340
aI849360329515700226
aI373096288
aI136193702
aI846875011197513728
aI775364532965371905
aI84275426
aI1385194357
aI828705280770707456
aI67415271
aI459042657
aI1093427184
aI16245208
aI848226182327930880
aI2268432943
aI21386067
aI27293115
aI1628415578
aI34585776
aI846505760569765888
aI414654247
aI104588212
aI475825741
aI455010172
aI349864317
aI849323299226177536
aI842455481092304897
aI14923738
aI215491539
aI255437902
aI4763108076
aI1868875338
aI789282017770864640
aI849323571247763458
aI4706011882
aI805442504988520448
aI796206955245215744
aI32494324
aI23489652
aI849315823881736196
aI789071181424922624
aI802152669603307520
aI199796809
aI1334855612
aI37320375
aI849310000166178816
aI849308489591779329
aI1442817828
aI15647621
aI787749937274552320
aI3774880282
aI728597258766155776
aI43535776
aI3376784891
aI602090988
aI2563458594
aI839436963816046593
aI515630582
aI95741994
aI819231713482178561
aI849291219679166464
aI848580481310482432
aI2297297648
aI344141006
aI828676370393944064
aI105828696
aI4831151019
aI754702384694079488
aI262987292
aI255390192
aI740800421170675713
aI395822975
aI849258633267249159
aI848528205917159424
aI225177354
aI722737490445144064
aI45102962
aI21386597
aI48299503
aI3004405922
aI815260159102447616
aI17512189
aI2398274082
aI48443045
aI849257737259282433
aI821023208933572608
aI848245625154154496
aI1347546199
aI6486842
aI849248803618160641
aI849248909956460545
aI849080775148437504
aI14705832
aI775605769295265793
aI2723505540
aI58594474
aI3493384339
aI849250569952821249
aI16679496
aI198496751
aI41577564
aI15500799
aI837172404703002624
aI849242122968588288
aI849224704623816704
aI833353420388040704
aI849242747978600448
aI739365754332696576
aI848121188912029696
aI3257809827
aI4015169353
aI849232702742171649
aI2650251984
aI848056222456610816
aI4171921576
aI512428481
aI849231344014168064
aI432463892
aI770791691855007744
aI127807046
aI836927706428231681
aI31779300
aI1050324865
aI733956407809220608
aI3321386287
aI3127919450
aI383986852
aI849208330157518849
aI617930377
aI2700842792
aI842015646560972800
aI793796557858451456
aI18513868
aI849193495185301504
aI43100228
aI857721973
aI833584555248451584
aI101225328
aI753565557304258560
aI844315239764025344
aI71214218
aI1640338914
aI1227197190
aI844216463611314181
aI2982996029
aI116402261
aI2420859061
aI849179000240881664
aI770332480679313408
aI839307261168099328
aI54371696
aI2933016875
aI584336358
aI3007254890
aI374861268
aI831805647993917442
aI3166264970
aI4807326530
aI802737651723935744
aI2880019682
aI89006600
aI500486216
aI373218428
aI2314826125
aI794583059156897792
aI3315952468
aI849106473229721600
aI2934164551
aI95419621
aI734590432081018881
aI169290398
aI1929398036
aI543763381
aI1038719108
aI849098805035147264
aI389760771
aI825565705999249408
aI849093171686649860
aI2613591402
aI205049464
aI96975192
aI57663802
aI127695156
aI39825430
aI844271889350475777
aI1395383676
aI849024360727941120
aI848507040192450561
aI3365820898
aI1946137446
aI849068954840698882
aI2788072645
aI14357543
aI849063507161219072
aI61689918
aI3284576113
aI834380858874331138
aI184184693
aI849051958413369344
aI89845464
aI562357271
aI831045026226413568
aI849043323683708928
aI172846941
aI824281948206022656
aI6199382
aI847586433057660928
aI848150526307049473
aI326283902
aI2804133324
aI16854929
aI122906797
aI732778398
aI91170407
aI73106140
aI842065604991430656
aI711413497788309504
aI23757560
aI140606202
aI57766818
aI2539648243
aI2515417719
aI1647571574
aI390569743
aI848987224758681601
aI848982233939685376
aI1470156336
aI287648183
aI276802671
aI63090388
aI121981365
aI135918920
aI2570660268
aI822215950220947456
aI373795924
aI848959206673842176
aI32415576
aI845010874070904834
aI1202872460
aI3017607909
aI37713955
aI844854674175868937
aI1140808999
aI788836093387010048
aI184129772
aI1051783675
aI848928497661878275
aI831388476226560000
aI2323996507
aI2172733018
aI18473452
aI848945621503442944
aI823592915121438722
aI2587822442
aI53854654
aI1129881427
aI429218913
aI1386648470
aI795034477567344642
aI341417546
aI9138212
aI297262215
aI848929724030124032
aI3405303613
aI3197470171
aI848908324452151296
aI844592962956775424
aI1553907522
aI716939897387540480
aI843862704448307201
aI2814989360
aI30224537
aI964650072
aI846389813167181824
aI402990163
aI18636438
aI3922505657
aI841317527158419457
aI550769365
aI856842026
aI235984620
aI836548341198630912
aI837077837811179520
aI77492120
aI779248979951259649
aI4053418637
aI728914395015712768
aI704606537570918400
aI21674396
aI847955629692071936
aI717936367611711488
aI113185041
aI3034184027
aI749206045961162753
aI2875562343
aI14225498
aI477659135
aI169635510
aI1273791804
aI825637332
aI1345575451
aI848439953583349762
aI848843289809866754
aI848842173671915520
aI303122087
aI396915380
aI759447261558431744
aI848818407495618561
aI785732554573881344
aI848826321530744833
aI69945619
aI842757763633762305
aI267717159
aI2347840806
aI84025602
aI769657917716983808
aI848498439499517952
aI2882926011
aI546073603
aI246667206
aI2175453888
aI1951598216
aI4779067122
aI283924010
aI414533218
aI2825185971
aI753945855196028928
aI171655471
aI751017464297820160
aI2515648536
aI331272437
aI230644018
aI396879379
aI845482907636584448
aI842439074698809344
aI845142601858670592
aI847809201707548672
aI821907984414625792
aI848703458035322881
aI848728842696929281
aI808566338981658625
aI848720169492914176
aI2351994421
aI766711523548995584
aI1219590422
aI102092688
aI190879674
aI2504699580
aI775781157539614721
aI222403239
aI707541494
aI848695199928811522
aI258107989
aI705486534
aI848688380086951936
aI48075113
aI2873878462
aI848677975562133504
aI848664863614398464
aI1923130238
aI847886679339929600
aI1220843352
aI2751375907
aI741283290087297029
aI818637526739062789
aI90054422
aI847799159054880768
aI848644091273515010
aI1105929649
aI1022399185
aI1375203854
aI33803294
aI848631063169683456
aI887561521
aI733028263090651136
aI764127636536819714
aI93193823
aI1092631939
aI848264801742721025
aI848505641094316032
aI757958698236940288
aI788841962266767360
aI3941842523
aI181646263
aI805125745542660097
aI717036833201393666
aI756905884320751616
aI251241909
aI848517483526971392
aI2663265144
aI2918210858
aI2908195202
aI271277347
aI844227028635144192
aI839623065420038145
aI3769912696
aI267853872
aI563429026
aI848566760823554049
aI16838723
aI848235232386060289
aI720353995470950402
aI838031601040687104
aI479351670
aI842273528791592960
aI848548083126292480
aI2381516982
aI4705498566
aI822472314453446656
aI3241231985
aI846362169088360449
aI848531163228536833
aI815555071517872128
aI274015922
aI1588994791
aI848527283551731716
aI111649462
aI2476738208
aI707243961098838017
aI848488013869056001
aI589953498
aI2479306074
aI740494093105631232
aI3067979108
aI159838025
aI848046328013660161
aI845625720999075841
aI331839169
aI23378865
aI848358367986941953
aI3020617685
aI129318477
aI820559371713253376
aI4438465396
aI4216957462
aI480451612
aI3302206782
aI797870285496188928
aI848463293177937920
aI2836680426
aI848458837187219456
aI2273452625
aI848146858060816384
aI740959733608271873
aI157318725
aI3481040074
aI356329561
aI64095973
aI848430583487225857
aI73816495
aI769590533870063616
aI740638564636102656
aI27324353
aI844136528146132992
aI802255349118078976
aI1398897517
aI836567829772136448
aI1597260049
aI843690565120081920
aI2809484970
aI1622760876
aI68860256
aI3733722678
aI1415290482
aI848363269140078593
aI848354107693948930
aI1141883462
aI251626724
aI848347414192939008
aI845789164083658752
aI3135186855
aI239716187
aI86749928
aI846746209737998337
aI848314484481458176
aI205048416
aI848323872835289088
aI153124667
aI848321251038838784
aI146123786
aI592914589
aI847122409182388224
aI848308289213317121
aI49751210
aI2941114032
aI848303524047863808
aI848301987301019648
aI232613372
aI353636574
aI833245561394442240
aI725804792
aI74425015
aI494444464
aI3401559563
aI744137699137851392
aI848261518303035393
aI2829079809
aI2400026122
aI125712679
aI3613645336
aI847092703833702400
aI866525491
aI2568229579
aI259000388
aI823066237
aI2433685296
aI846460453811359744
aI728373
aI404316803
aI2763006530
aI360343786
aI58947242
aI825696047162748929
aI419129691
aI184873016
aI1199452603
aI165036845
aI261713472
aI846000154096254977
aI3160692502
aI65378051
aI113804716
aI848200015302582274
aI830766341506359296
aI844470079278362624
aI819975915216273411
aI848193167019081728
aI84634533
aI841407941328556032
aI17912203
aI614468096
aI2449640744
aI1603330320
aI848176626651152384
aI847776231571378176
aI844506445538344960
aI363111973
aI40196513
aI848152423470202880
aI34772592
aI18286520
aI1261806733
aI1536552768
aI732485273678815234
aI348492334
aI2258138876
aI43596239
aI2752748291
aI816238377024397312
aI848121446400380929
aI1963182510
aI839729469984243712
aI802381670322081792
aI790195146205822976
aI21192026
aI62025782
aI272647562
aI1606501794
aI1125860774
aI848090309846196226
aI64695914
aI3019263367
aI768439279894818817
aI3051836719
aI141578665
aI502208728
aI3307635791
aI791605606339661824
aI847955279094337536
aI786841081317031936
aI847640449317601281
aI848072621673504768
aI2745048752
aI2772859279
aI741917752944791552
aI48273073
aI848055629113573376
aI379442312
aI848049878777290753
aI185165052
aI1298112560
aI26551794
aI222200087
aI717422606
aI96864580
aI549456183
aI847489307568766977
aI713597639238021121
aI729166866510417921
aI848025943558021122
aI116443883
aI848019271296753665
aI33356726
aI160461599
aI24922669
aI176345074
aI847991744700583937
aI816255360931536896
aI847987334482153472
aI317277639
aI246634589
aI777976485638381568
aI843416633192386560
aI806735610136272896
aI706963275905425408
aI847973958414721025
aI832474534494113793
aI748665545587838976
aI845348790374686721
aI467067963
aI3248980830
aI841737195459305473
aI14832726
aI152777740
aI275102108
aI27721182
aI4319694741
aI829807425817604102
aI55315217
aI735492538178490374
aI217290695
aI1355757283
aI847948311470395392
aI322286446
aI847944800838004736
aI847354599358906373
aI3249358453
aI847427592982380544
aI777830089018966016
aI847387995934044162
aI47370315
aI844722774161674240
aI847928130169741312
aI2886790563
aI847921335305162752
aI2577290156
aI803158540739342336
aI847916784497721344
aI384226093
aI4654007841
aI782625083785261056
aI21663508
aI3442534233
aI2162524980
aI3515710349
aI327377643
aI712689175405928448
aI101483578
aI401984227
aI847904948528439296
aI15865791
aI746663335551176704
aI4316338175
aI2916084152
aI87055738
aI53355743
aI795689465964466176
aI784481581121568768
aI847814669444272130
aI439898001
aI812239250
aI810857344062070784
aI118201212
aI1720590924
aI411415766
aI213806203
aI622785068
aI325564037
aI317516349
aI847871188256862208
aI238284808
aI806202763361288192
aI15205352
aI847428983427801088
aI822868094217547785
aI221525661
aI1263450991
aI789986985826017281
aI364221505
aI240246277
aI846655470
aI150248249
aI54947302
aI803284551409745920
aI846329148499005440
aI847820940562059264
aI831452331891789824
aI14389047
aI847826035655704579
aI2190682518
aI42560287
aI39136909
aI847839587133161476
aI209895184
aI364907127
aI701058764640645121
aI847826514741743616
aI463403824
aI782686626321281024
aI818481311157362689
aI320749712
aI27614564
aI1673962855
aI839450447006085121
aI847825433710272515
aI24630551
aI824642432340029441
aI807064741617115137
aI261013534
aI2293429045
aI355013613
aI847813919276191744
aI780484534076895232
aI328540750
aI30244685
aI3456264980
aI3219924104
aI1465465850
aI42169056
aI804739176700768256
aI632160834
aI4808093834
aI847812920507588608
aI83601608
aI151311958
aI836910301014478850
aI2281995396
aI781543322590572544
aI2177951205
aI2162654012
aI119395548
aI590423965
aI4919821317
aI222496937
aI318103421
aI738795088185327616
aI846562794136727552
aI3172182806
aI341665978
aI4883666907
aI710558407585959936
aI817322435938816000
aI823518808044433410
aI125292148
aI3015279460
aI839729230963486720
aI814024627194392576
aI2739694838
aI1126652342
aI556813379
aI847406000965509123
aI816222854794473472
aI1467657661
aI846310989775749120
aI1288171248
aI122071458
aI837474080244707329
aI205156865
aI845340263237275648
aI481331460
aI4835809471
aI782612138422480896
aI597920653
aI847739707832229888
aI371769589
aI2402539224
aI1831402940
aI362088086
aI3192781271
aI2875608664
aI755523424567558145
aI847661560717754369
aI845421449565360130
aI392121081
aI389361357
aI2975860316
aI3323419194
aI847730911646896128
aI53003961
aI804471996734119936
aI780704310975881216
aI384365657
aI764739032266006528
aI3173281159
aI3324766326
aI845144233459662848
aI260042295
aI709988401362169857
aI4257865213
aI4009809035
aI2944104614
aI1338682717
aI135356757
aI847658926220783619
aI266598119
aI472435515
aI760238706
aI200561744
aI3313016346
aI797319580649668608
aI18769237
aI884160187
aI819004334490976256
aI1105264190
aI1952096558
aI826672467263516672
aI841265798832410624
aI164545221
aI840770997376696320
aI107703719
aI847648759353823233
aI346302423
aI309231072
aI2779861964
aI841012226001580032
aI352357926
aI771712222586437632
aI847638489017368577
aI709373341178707968
aI30167637
aI846927033502351361
aI4506011674
aI821591354073616384
aI53959407
aI17562918
aI2421610641
aI3517652057
aI3005771196
aI3122671952
aI754265465698983936
aI836404145200431104
aI793542191343886337
aI837374776033300481
aI847593349255237632
aI1330130576
aI46602954
aI845920939900637184
aI839645600425586688
aI394987847
aI619713041
aI825458561127845888
aI804935946
aI149773625
aI708701059993214976
aI28124788
aI20374809
aI4134774947
aI3145495155
aI39159395
aI834822430820618240
aI847566971529039873
aI610348301
aI1586349302
aI831527394670477313
aI234448881
aI194822485
aI3132749666
aI847556691801456640
aI847548872834433024
aI466310099
aI3345215751
aI758519886
aI761623100224077824
aI40073842
aI801520373766307840
aI847547884635553792
aI41230252
aI839524113668583425
aI847546373574598656
aI196372588
aI47362374
aI90923797
aI842488751985168387
aI37934115
aI2189497763
aI2366396088
aI2210832694
aI52808290
aI83925741
aI279991605
aI341306169
aI24846916
aI824685140609814529
aI847521668482420740
aI1534632619
aI2642195470
aI847519810036666368
aI4812704892
aI870984036
aI847493763677143041
aI2903953142
aI564740065
aI246356198
aI1123867153
aI44096820
aI496881741
aI847485306466992128
aI95096358
aI1089997260
aI112628126
aI172299915
aI792043974496178176
aI783233322919100416
aI84128614
aI43920428
aI147495443
aI769866635587059712
aI1457920568
aI840438687330684928
aI2757920927
aI2814693734
aI1532066118
aI3394170003
aI1279119271
aI50158132
aI819580342768193536
aI544384399
aI113632396
aI132501645
aI238009581
aI120494740
aI402680368
aI720057520
aI2345647922
aI820804133276028928
aI376912875
aI24435320
aI847466197457043456
aI847457911424995332
aI847457012908670976
aI755408759594377216
aI800608986898669570
aI747809003510599680
aI390443733
aI597256330
aI844581810399055872
aI30043590
aI2948741037
aI151674115
aI19277132
aI4836969255
aI3315211642
aI55020363
aI846804276685033472
aI1020299136
aI352232090
aI846987172263727104
aI819170061789204481
aI4886187045
aI847439281476046849
aI205791001
aI743288527
aI969894870
aI845580557291573250
aI386064638
aI31257785
aI86851484
aI921878538
aI847433547115708417
aI334102156
aI1908258038
aI134064019
aI847198947919740928
aI324973400
aI66570553
aI53887213
aI737226378572075008
aI846197043014123520
aI940749780
aI842254433572474880
aI2946012792
aI222693471
aI1240279507
aI799860521600065536
aI4053713447
aI388669621
aI847414454392246274
aI847404047028043777
aI279641909
aI1364178571
aI494215739
aI847407047695925254
aI794195848578088960
aI365640089
aI758023900928339968
aI800729050226442240
aI835563670801305600
aI847392943904137216
aI702408182367449088
aI1864054484
aI788319556397826048
aI838204958063243264
aI847388427905409024
aI222891753
aI723518791267848192
aI776677631664152580
aI2925095152
aI727420627657871360
aI847379762410422272
aI845329622610972672
aI1962312146
aI368992031
aI796145473534836736
aI634480407
aI3322651783
aI847365036204900353
aI121694295
aI351901867
aI114714316
aI847351032430460929
aI755544705094471681
aI2864710921
aI3435837754
aI840584017745391616
aI29445833
aI96140951
aI799645134304505856
aI834009643076710400
aI200474219
aI772502919031783424
aI83667710
aI1851892992
aI823575054806028289
aI252630261
aI1488052542
aI846673829065777154
aI847323666299854849
aI847320744212086785
aI1297013203
aI4320069558
aI847099600922038272
aI1405530554
aI31257602
aI117996877
aI23024576
aI838561580019220481
aI828498550686367746
aI114246605
aI705103479
aI2475625328
aI1908654877
aI847284485586472960
aI79286848
aI847284873224085504
aI45713460
aI701112021425778692
aI3267135812
aI372748147
aI714811176182358021
aI11253262
aI227621140
aI767843012
aI381080113
aI1529560496
aI838862103587012608
aI60433526
aI701248466991902720
aI753074784003653632
aI3556025776
aI1658461424
aI846773045951942656
aI11908512
aI4891631364
aI347524162
aI128322645
aI172722928
aI264166067
aI3187595988
aI1927404762
aI842163724525826053
aI510340931
aI17602493
aI49730253
aI379933789
aI4859560725
aI24264646
aI156761176
aI803904814166011904
aI600331948
aI820796967139868677
aI45384059
aI415278964
aI2954421433
aI93334594
aI360724969
aI38997908
aI15279933
aI843632948838645760
aI561521674
aI2873817059
aI2294466840
aI341216512
aI768738835782045696
aI287963771
aI1197193818
aI743879868
aI17450598
aI839261002176700416
aI847192194381467648
aI847193041270161409
aI144246721
aI2978859434
aI342053641
aI17442055
aI171294533
aI793241647945437184
aI14092182
aI17941197
aI3601706783
aI2332623379
aI731011332560945153
aI775337383734550528
aI60268844
aI719059021160787968
aI751118458985652224
aI750577267256983553
aI21574167
aI268061726
aI753602350909128704
aI562955515
aI149040018
aI3398661434
aI2230636801
aI40445316
aI1115118798
aI847167302730743812
aI772107464762200064
aI2179340480
aI837884551984730113
aI3939564920
aI4807455635
aI2349076153
aI53630716
aI708594630376337408
aI208761968
aI2554140890
aI12113962
aI2325782750
aI847153012615380992
aI847150849382121472
aI304755896
aI70230944
aI729842069418561537
aI845290992244850688
aI52894240
aI3455823977
aI718934693630992384
aI21328734
aI847141219268485120
aI1772159208
aI847139110817030144
aI59238321
aI718363725682642944
aI2474470303
aI587023830
aI272272010
aI311773784
aI2305490444
aI17774772
aI2350689074
aI824183380220776449
aI1249367605
aI844718386760339456
aI839131520195510274
aI205794902
aI258184154
aI282471812
aI834095278152151040
aI821771793157488640
aI846510572396982272
aI212331992
aI270441081
aI140713872
aI838417487138074624
aI3011838270
aI103268493
aI940006064
aI1372537063
aI842892349453881344
aI430771440
aI847102177055330306
aI843796424391376896
aI845664021961359360
aI326776168
aI2152017211
aI317606533
aI1322377435
aI3253833304
aI822829551851958272
aI76630650
aI3271612458
aI411735315
aI85349898
aI843844249460326401
aI746878217051594752
aI704678132956188672
aI1456069009
aI775119895897968640
aI117037258
aI2226420720
aI837380952364093440
aI769268373700182016
aI43758330
aI115871269
aI448155504
aI37626929
aI846342987705716742
aI842704357132922884
aI14790289
aI1510042962
aI72083864
aI482036978
aI847061883588952064
aI750728278223249408
aI518084938
aI3304328751
aI1487297204
aI69334889
aI846751738455625731
aI847058256765861888
aI837407413573672960
aI1502566393
aI774239530786390017
aI320183152
aI95896290
aI847047228137066496
aI847042918657511424
aI1220189623
aI847011014927364096
aI847018427344601088
aI66647218
aI3213323883
aI733498808689008640
aI512984872
aI809729085014507520
aI295067464
aI2612731922
aI90351273
aI234967325
aI52992535
aI790710947098746880
aI3136475622
aI794031164558282752
aI801159540565770240
aI397510302
aI1836494960
aI1406894576
aI2444294391
aI3547890444
aI757530828473790464
aI844405479900155908
aI846597182992142336
aI847015148653088768
aI572573830
aI846284271572729857
aI829451647940194305
aI818402176947093504
aI824928633558949889
aI844622408304623616
aI139151085
aI4276951481
aI843875958797094912
aI86601665
aI1400115722
aI2308220184
aI1105260380
aI846417948998807557
aI250700844
aI828360041317048320
aI975111764
aI200063699
aI66182183
aI846314680356388868
aI846989648106786816
aI839875701050220544
aI838408245001728001
aI845261134210977793
aI286153276
aI706814130
aI436455790
aI846356574092214272
aI58399409
aI2810657100
aI4709052122
aI1479497473
aI846953143422345216
aI278958698
aI844303976593973250
aI496891769
aI823880783819468800
aI88245389
aI3033744782
aI842629340101861376
aI615337853
aI3304586328
aI846567518202355712
aI1630039081
aI759109737128587264
aI6361842
aI741568361956560896
aI3316764843
aI46390931
aI180255143
aI806206837301383168
aI2982245904
aI4886615351
aI41726300
aI96419925
aI846917827445567489
aI3285817585
aI1855542134
aI222131109
aI907493210
aI1289394853
aI844942418776653824
aI798109441677787136
aI812416968007516160
aI556365805
aI758819563576233984
aI846319603659804674
aI50724021
aI274092729
aI845872467402907648
aI724259151937953796
aI384467957
aI22237190
aI846884357012885506
aI758723740045803520
aI3038947112
aI115210237
aI846876035454922752
aI2266547807
aI846868716759519233
aI846867612915109889
aI600469625
aI283354613
aI21580126
aI2395606739
aI843789854605557760
aI342871848
aI163574903
aI2873319104
aI809093562562383873
aI740998384010461185
aI3900595155
aI4146203188
aI844520936200163328
aI3284273382
aI101955418
aI98509536
aI2228085835
aI726469983543373824
aI787027911320674305
aI76419170
aI807300381608910848
aI401489426
aI492492514
aI714699742962393088
aI3166208967
aI840083702822592515
aI356330374
aI486974957
aI564159339
aI739342038206799874
aI384941949
aI2445812256
aI355293096
aI778231773033627648
aI382017916
aI1588729902
aI846696889487704064
aI141186819
aI335351333
aI811818825809207296
aI837004898281668609
aI753672161458552832
aI846792205184520196
aI1310443542
aI800377045184192512
aI25630053
aI2918339181
aI804323725327921153
aI708960358615142400
aI3224079288
aI1433910990
aI198558185
aI839154920154505216
aI555629550
aI333344312
aI552076515
aI20998301
aI738389204481216512
aI846775345491652608
aI2184959270
aI821170506544148480
aI846766017300877313
aI262593789
aI392986480
aI800320081439825921
aI106921818
aI10721922
aI804338052235673604
aI757973345023381504
aI846685176507850754
aI778322939477393408
aI2362670617
aI3352458052
aI103113359
aI43276244
aI846397033237925888
aI1558274606
aI85993440
aI207804953
aI802235878982684673
aI814066006859640832
aI297249751
aI344901735
aI3265984592
aI753346121406164992
aI62391652
aI292967693
aI858225392
aI17710815
aI843952817991835649
aI16933822
aI331038630
aI846722749313814528
aI21697564
aI3343981054
aI351137006
aI846727801512349696
aI772346501997572100
aI1655451073
aI846322526594777089
aI23662457
aI362193512
aI830232225329377281
aI846721983740084224
aI1372448534
aI258251612
aI793815993256738816
aI253975336
aI834090282882887680
aI173061071
aI825106859342327809
aI3142791337
aI2792490528
aI425019287
aI846379506260570113
aI771671687414841344
aI1151039581
aI1179684974
aI3431337586
aI383169517
aI258891868
aI1930616365
aI754314920473206784
aI845907373118107649
aI384346020
aI815836426541682688
aI846666006873493504
aI36221636
aI3533930416
aI160260281
aI844513387526565888
aI747854341881610240
aI815200874419159041
aI202980511
aI826040379770302465
aI1344551120
aI515403966
aI58491191
aI30150841
aI841766478122737664
aI551991619
aI1251033649
aI3225038047
aI1162295954
aI311550930
aI233246228
aI846644492052639744
aI2376647594
aI253124462
aI845840948055597057
aI2527027363
aI1392635516
aI96496563
aI2168256648
aI47730463
aI326796980
aI802562188682678272
aI3526315217
aI846635516313440257
aI3824229159
aI241540584
aI846627948459429888
aI212686822
aI229455897
aI827731962668331008
aI134118841
aI784183253192237056
aI843098267135094784
aI811334204650885120
aI602861997
aI352822146
aI925786765
aI840106262134112257
aI1866856182
aI232513547
aI846610206431887361
aI483355131
aI840822212106031104
aI4780720626
aI18419299
aI70534218
aI161678955
aI520104317
aI91903693
aI726191773
aI988385815
aI846565929290936325
aI845505493086994432
aI434625488
aI3702404296
aI106031083
aI375194950
aI1033499708
aI806448116509458433
aI2837030551
aI4442468835
aI556875275
aI2991928190
aI769107181081759745
aI707016437303365633
aI434758993
aI846238608960970752
aI900496561
aI845680868190404608
aI14114460
aI310800238
aI785335216063733760
aI420540539
aI2154887126
aI54777481
aI154292458
aI332945019
aI1123860558
aI1217141768
aI339941264
aI834087921162428416
aI120315850
aI1263920522
aI846494965903478784
aI824757838757187586
aI3157403128
aI3299758751
aI471128625
aI702286453829734400
aI1247908104
aI145557388
aI453362784
aI785168047908659200
aI144223414
aI534793827
aI825158748
aI116665599
aI1421970654
aI390095885
aI788475264288362497
aI701180828575993856
aI78129624
aI805182376427012096
aI827231440429424641
aI51052330
aI818655030970617857
aI5449422
aI415754027
aI844662312019615744
aI187781430
aI846436572484550656
aI821330689283026944
aI593760472
aI2953091155
aI846351678240706561
aI846012526395576321
aI405808096
aI3086342224
aI2914536376
aI594987053
aI407848702
aI456470995
aI17619074
aI2608679081
aI790666451401277440
aI222743650
aI412297224
aI3420254859
aI842499186759090176
aI801153234882744320
aI752547518748233729
aI1546069332
aI730573784164519936
aI814140752624230400
aI857352938
aI4255216665
aI428167069
aI2991373744
aI846401738881982465
aI268414388
aI1173445650
aI808313205281918979
aI3892995192
aI846108785659858944
aI45826628
aI116769961
aI3335989814
aI752003632304906240
aI845286424010244096
aI729028037329735680
aI897861980
aI846396500544540672
aI770256708966940672
aI776460157232484357
aI440771261
aI490058913
aI2274725012
aI824351182244167680
aI119564457
aI302797480
aI842365473169780740
aI844290344627810304
aI101017228
aI206765469
aI15275091
aI2284068690
aI2543611177
aI846372889851039744
aI46227488
aI133018214
aI846373857657307136
aI225843680
aI2196496724
aI751908540307103744
aI1549977444
aI86332593
aI57424910
aI846357735641939968
aI548513004
aI4017133823
aI2876598490
aI1004571
aI1180632380
aI29446140
aI2731459598
aI846348154769477633
aI227534134
aI3588024204
aI168906620
aI765078973265092608
aI222767096
aI2450501966
aI834581679398330368
aI2914091403
aI2850957560
aI4714879703
aI845553447613202432
aI377959006
aI846331604033306625
aI37488322
aI840123330149605376
aI2873695444
aI512255952
aI795562901851570176
aI846313458631041024
aI62416900
aI437807935
aI121987776
aI846098887446269953
aI3323407551
aI3431912026
aI2857597606
aI156263080
aI141900067
aI2167738403
aI845255382759100416
aI2915799677
aI314723198
aI116447416
aI758198789106794496
aI68419117
aI343494644
aI2987233615
aI891835122
aI846043988943503361
aI830001722273718272
aI767591546187153408
aI3024611249
aI555269943
aI811736535171100677
aI306114257
aI31039907
aI1915200494
aI1100907445
aI720969752269758465
aI319304404
aI26217509
aI2445640855
aI846277762935640064
aI832530950668034048
aI68800999
aI1014518305
aI827327358373867523
aI1006999392
aI391191915
aI765948713793617921
aI887715096
aI820249241108901893
aI128461923
aI2443286144
aI3280598658
aI1062005557
aI829663681638178817
aI52558507
aI838975112808312832
aI845580738183467008
aI846231995474599936
aI758873925702987776
aI65296438
aI799192968854904832
aI413991797
aI1844365730
aI54730354
aI2897461369
aI846201802479546372
aI760016574774382592
aI200460865
aI3271436948
aI205965393
aI846211627041116161
aI64123852
aI4257127455
aI4655345055
aI838128720170913792
aI3059073184
aI3648192261
aI753965934889414656
aI846195513745707009
aI840253771577884672
aI431188105
aI821115251450146817
aI1264631082
aI2241769601
aI816303716458496000
aI823162283815600130
aI438798398
aI2551782834
aI742341138389045248
aI16461990
aI528138078
aI2797956781
aI237274302
aI750724144401117185
aI845776094548635650
aI843906159857737728
aI926946620
aI798489419841961984
aI833970313
aI21915104
aI846134970733150208
aI376041727
aI845400066827407360
aI819674105825918977
aI710559633862172672
aI1642986438
aI46806174
aI400060877
aI783398060504322048
aI2580598219
aI846129458780221440
aI781993517677682691
aI2413593007
aI167936048
aI274312886
aI17859371
aI137407445
aI43354188
aI844026022123073536
aI736001373439971328
aI2161196546
aI567699688
aI23076651
aI363036793
aI2833541538
aI2898436342
aI842294591210496000
aI846077093859381249
aI846058196674510851
aI846093478690017280
aI2365983356
aI16082189
aI841988728583270401
aI2754048017
aI719384652805513217
aI846085035409182721
aI846029276210249729
aI711956091517739008
aI846078371943661569
aI845934696525676544
aI1350435210
aI1470484296
aI93872909
aI3447769694
aI317710864
aI4848671085
aI283083786
aI771405922912444416
aI845686143584755712
aI242702844
aI846060797595860992
aI409411041
aI2494703026
aI284774618
aI846050397345255426
aI4260231802
aI2608102910
aI846038614458871808
aI846040057672806401
aI94989605
aI387689027
aI4826453953
aI2592802752
aI846027602817110016
aI112858527
aI844673617082421249
aI786737649486888960
aI118149757
aI1200804444
aI164270424
aI15409272
aI14858161
aI842968515506311168
aI255776728
aI3126938899
aI845356019974791169
aI76541920
aI809476434645368834
aI1542732679
aI1206201206
aI2962233327
aI784685157039177729
aI703386253
aI815079777778434048
aI61696026
aI808514094
aI845982293906935808
aI830706658078769154
aI3009881298
aI38774773
aI1213801556
aI845966582467756033
aI373905062
aI2954879056
aI4835778691
aI396305414
aI707479136927924224
aI845936752900653056
aI141298153
aI818585600613826561
aI2417175301
aI730432614939549696
aI27945994
aI2766356648
aI212122458
aI2249458766
aI69858941
aI58235636
aI845921024147369984
aI3402076873
aI843362957140492288
aI47636551
aI37733363
aI845911836323139584
aI3379112183
aI3241519591
aI206989709
aI759092917621264385
aI844913544961445890
aI95630108
aI405013311
aI785808312163893248
aI4687444580
aI14817705
aI227409896
aI845878872646336512
aI845883724248076289
aI837531009486770178
aI49458569
aI838337687551684609
aI824870703178534915
aI3389583682
aI132082276
aI845456189139881985
aI4882564926
aI845862170055270400
aI2242629990
aI267037883
aI819400688249630721
aI2999583210
aI820335323469189120
aI2169692910
aI3739248255
aI1926934651
aI1347083310
aI57427164
aI4444080857
aI22487663
aI845694820538634241
aI430027765
aI954835615
aI3293119053
aI390073057
aI178757667
aI262408436
aI19935269
aI845380463619457026
aI239908250
aI480915531
aI195820033
aI11132782
aI471618068
aI796291398672781312
aI755641717353746432
aI232413674
aI583617090
aI2531431516
aI838476283218644992
aI1202367264
aI845740852806864896
aI1873027692
aI845328151211212800
aI845741072903016449
aI65937837
aI845740284298350592
aI601854840
aI710521356660699138
aI845354264444719106
aI2774549646
aI483644269
aI810521856356810752
aI3590848888
aI2550628094
aI2223538080
aI2461859520
aI126004195
aI3170900165
aI129643062
aI714853824356179968
aI788723569
aI845652267965472770
aI766732716998062080
aI3040722961
aI845080575484608514
aI553413847
aI2362415977
aI843267780929617921
aI720648597046489088
aI845317877653786625
aI45190819
aI594248275
aI806018664176619520
aI794185698001596416
aI843922268816375808
aI813456975732342784
aI1438948140
aI3294046643
aI811605577268940800
aI290628488
aI278895129
aI796490411577577472
aI2517910142
aI65804553
aI110531912
aI836671331554963458
aI1029309667
aI133312236
aI24751304
aI845631713015418882
aI22850935
aI1588583341
aI109706130
aI783166009322590209
aI3128492340
aI845643908998684672
aI1475466979
aI798030932129304576
aI18536099
aI3233602940
aI48349747
aI173222463
aI249688071
aI845352027244789760
aI92893754
aI202132886
aI782007787446566912
aI434466571
aI73360442
aI14645656
aI3781767072
aI778930314458660864
aI845598560624279557
aI742023141782851584
aI469097264
aI836914770930458627
aI802408949165211648
aI809264701477523456
aI301419159
aI821063511761633280
aI720430294734536704
aI845576672954998784
aI843140779593949184
aI46887551
aI785738855303393281
aI448062813
aI4063016795
aI253255217
aI388368108
aI839359647941173248
aI256626739
aI334056050
aI1044227509
aI4273056556
aI772954788
aI24514554
aI845506574722392065
aI840558410705833984
aI22344887
aI844156278259810305
aI835523027853000706
aI1568096912
aI371001311
aI2835919976
aI794918557326807040
aI896088582
aI823668479874256900
aI707552549419659264
aI775186331232108544
aI845092715675181057
aI568595183
aI845478508675579904
aI3836509693
aI2307317528
aI2165720154
aI46554633
aI2537538612
aI488699916
aI77124697
aI845408556820189185
aI4265706357
aI1077253580
aI129778074
aI1259913925
aI2231970818
aI3140566558
aI522885399
aI1415749963
aI809840412718493697
aI21330478
aI711437495246782464
aI2905399217
aI787547477352280064
aI792899977064378369
aI321425038
aI2884359152
aI26053532
aI836634222429351936
aI1263253530
aI794671176291188736
aI4234589665
aI781290795898810369
aI1979236908
aI711856873
aI29817512
aI845405597826797568
aI3180294105
aI15004042
aI1454403175
aI748775264453222400
aI1055499908
aI549168328
aI620112945
aI845080539824558080
aI564045529
aI844631104728547330
aI396555343
aI60532710
aI4838048859
aI2388207601
aI2297184866
aI993302166
aI844690966174838785
aI264676707
aI239066742
aI86955936
aI485130628
aI145017391
aI407266363
aI845357145495265280
aI4332098116
aI845340986884739072
aI824681483302502401
aI4259642172
aI14083539
aI60918232
aI22874122
aI49759052
aI2944117636
aI377613179
aI54600214
aI477407161
aI384867546
aI2864144520
aI919868156
aI210981281
aI796158604877398017
aI844478539290292224
aI3375709858
aI845326640146239489
aI2336388552
aI1649621060
aI2854138679
aI312649212
aI838079080511725571
aI845319800423432192
aI850113013
aI801694933686030336
aI323923577
aI267822382
aI339823648
aI845297556729016322
aI390019844
aI479616093
aI979145102
aI844616919017799680
aI143865337
aI845286503492308992
aI4261889002
aI70788571
aI445808922
aI703311014
aI159212815
aI78263055
aI1226010547
aI4718640852
aI198238719
aI845295263132631040
aI308550662
aI2822718338
aI785864629029339136
aI392297470
aI330857029
aI183714430
aI845281337208688642
aI114084564
aI18905439
aI18028280
aI844576740395638785
aI458413619
aI845276188855582720
aI845275854439694338
aI788011848813600768
aI27852832
aI3802867278
aI41172539
aI47655460
aI845275998933282817
aI620741230
aI2604070952
aI164624472
aI3317978007
aI376083550
aI706230772232015872
aI1676646757
aI4567523052
aI807489109123993600
aI2671204665
aI350827103
aI155589020
aI845242367636484096
aI722075545337352196
aI805479666035425284
aI845241293328539649
aI845211784395001857
aI288318877
aI52646284
aI50946323
aI4737853213
aI923092591
aI42398947
aI617348948
aI219912166
aI3222072192
aI3347097678
aI844140301140811776
aI844997530731528192
aI3904413864
aI117028694
aI121229818
aI3020612274
aI4163986798
aI842771446753607682
aI3222911682
aI3279612644
aI79147379
aI816484293144768513
aI845209258094407680
aI845209363098845185
aI431187895
aI834604277389787136
aI2708483648
aI3332226501
aI157339794
aI1425259369
aI844625889556029442
aI104872055
aI842305404755431424
aI844870251703500802
aI793728993954521088
aI749094313213038594
aI1098154296
aI716501566748884992
aI852804686
aI15848828
aI777413734109106176
aI845171287181803521
aI845164002023899136
aI2932707640
aI1105612580
aI1608393476
aI2241713126
aI838080887975731200
aI355772196
aI844082094317871104
aI570680395
aI1913650711
aI235491624
aI3764988613
aI1545242712
aI844146661517594625
aI213610747
aI840029073460072448
aI2616772075
aI845130994982141954
aI840910021122650115
aI3223169658
aI844969452458459137
aI207203244
aI839485733605937152
aI717786281791463424
aI845108628986187776
aI2433742590
aI769053990982127616
aI602395174
aI1140609397
aI3950335033
aI821495720637145089
aI1195077600
aI707993667
aI636253919
aI726262912143101952
aI796460238669053957
aI2327247751
aI792930771015262208
aI42929897
aI16339034
aI221095633
aI777292352
aI839964858795905024
aI29050006
aI819937286116802564
aI22556872
aI23131487
aI586145847
aI1473068586
aI844201481511276544
aI2820208960
aI817692488534265856
aI4254710118
aI737523574840299520
aI494509031
aI744929448001167360
aI1148494232
aI21497703
aI199300570
aI738418250443280384
aI44719544
aI27028163
aI186472282
aI115762707
aI912785490
aI821802849147514880
aI1407817238
aI4586193552
aI821758980
aI835351796688117761
aI720560793306165249
aI845018502306123778
aI1209388220
aI93953586
aI21644528
aI844758898103922688
aI844986916021919744
aI1569812972
aI838893952556281857
aI104558022
aI819291562886762496
aI844201432521867264
aI779378300430974978
aI843268783468937217
aI3612503423
aI309957330
aI826876535290339329
aI844993855493754881
aI2236635031
aI752419720498851840
aI1336124030
aI375824031
aI300391456
aI72826287
aI146812221
aI4159461987
aI58805942
aI103402527
aI722624430258700288
aI3002752446
aI820154780
aI3814176737
aI2359947662
aI434003823
aI844972895256358912
aI438316486
aI117294969
aI221824805
aI844398365546889216
aI1305027422
aI786313254729453568
aI536459016
aI31304028
aI1640902974
aI9217662
aI183042181
aI1225869888
aI843320344597479424
aI3183662008
aI812142625327382528
aI15863281
aI1877480221
aI267290655
aI2864091460
aI844958118723280897
aI844952563145359360
aI2786128001
aI733190986277347328
aI60713328
aI47666341
aI2941282158
aI745289406328803328
aI186863734
aI631366335
aI823973145832878080
aI3301547561
aI1940869063
aI826928536057417729
aI546926489
aI121092454
aI838687999839899649
aI1225970953
aI2295974863
aI3004902322
aI840972936131547140
aI738645836440051712
aI2976651227
aI3326941131
aI2494315944
aI4707341653
aI826863206836686849
aI4228263699
aI8813852
aI1370027624
aI37631422
aI624753049
aI392678300
aI555882954
aI844929483908038656
aI844927208053522432
aI844850734558437376
aI827094576217288704
aI707704193268752384
aI844110651945566208
aI1726204759
aI843157242874552320
aI1931785556
aI844918832338644992
aI449631230
aI844916921468436481
aI25807798
aI788779960794087424
aI834620706486784000
aI21658578
aI2893998001
aI437218684
aI279498052
aI25087050
aI3713563044
aI437598510
aI334122156
aI168961151
aI760170888524292096
aI844850456664813568
aI844725285945835520
aI739164229396226048
aI823921941895675907
aI2252484266
aI844892226647969792
aI301948653
aI793857994060599296
aI588329370
aI844890350674235393
aI844825122238185472
aI3595073240
aI4853429961
aI480740493
aI2856038690
aI825396691515928576
aI460210019
aI231862625
aI844826071564410880
aI844864536645591041
aI823320834232242176
aI775705631936446464
aI46369704
aI1114781449
aI69877907
aI706667006
aI844870591597314048
aI844583267642687488
aI39183033
aI1157150822
aI220818476
aI844868919718395906
aI844383739207696385
aI164630850
aI6037932
aI795968492247859200
aI843182076191031301
aI2651200003
aI615328989
aI3435416584
aI2474011416
aI1558886576
aI319651940
aI844847685202948096
aI1617554268
aI844842647088857090
aI311629485
aI786617691104694272
aI1089533130
aI844840222105862144
aI1267653152
aI326057098
aI806544636
aI803345930288295936
aI832170900233584640
aI3363164734
aI3419838999
aI1285352400
aI831085677605433344
aI801994856000200704
aI716911958977478656
aI258369072
aI408063870
aI36777084
aI821555685804503040
aI515926018
aI844696137319796736
aI3039068143
aI805125236131700736
aI524218668
aI2395655636
aI389329385
aI105404751
aI843150883739308033
aI804603594267725825
aI2873682411
aI844440568256221185
aI3072076064
aI26427763
aI774111787620765697
aI542521337
aI4804803956
aI841960065770872832
aI19547936
aI758179508516229120
aI799132069750157312
aI844773916782444544
aI844586682280235009
aI844767859679019008
aI2703321316
aI844763139128225794
aI172754703
aI1521286002
aI750487064
aI2918063953
aI952226138
aI1261250324
aI16344498
aI411766746
aI2820120747
aI34666972
aI843864383520358401
aI2857652851
aI805538024301989888
aI29146648
aI3369631103
aI431278484
aI3192440052
aI839844721228840960
aI27807769
aI750005241513410560
aI810875630845829120
aI102273842
aI200830188
aI4828948306
aI202417653
aI1118679318
aI844707400108163074
aI168855019
aI195574959
aI636428363
aI756032256
aI834603867488808960
aI137452489
aI1007704038
aI41977127
aI834459902068346890
aI749241968522194949
aI146810951
aI1705946756
aI844706747512242176
aI2269087106
aI234111693
aI17469567
aI844254360976547840
aI515521222
aI471898002
aI844690338056953858
aI2954556026
aI97683616
aI4060697607
aI166400463
aI722123717736800262
aI39770594
aI844676666286903297
aI844677979393478656
aI81035367
aI802832864521785344
aI1321303044
aI844672699616051200
aI720971630466506753
aI836403279886180352
aI2986036290
aI826106804748824577
aI19026747
aI838878882128363522
aI844648441430982656
aI844342432254840832
aI346590688
aI2172728493
aI125746526
aI103070115
aI1152075164
aI3484495640
aI2341405914
aI4718343682
aI3069488722
aI321041986
aI385102792
aI336281779
aI138380787
aI14778540
aI3352279153
aI285862967
aI58019679
aI37662384
aI17455659
aI844640543992954881
aI1717364539
aI2388226619
aI772124198
aI842598732797558785
aI739560961657425920
aI604034907
aI212898234
aI843611538023825409
aI2752239738
aI825550503660564480
aI752202605930090496
aI902022272
aI2218292076
aI2203861884
aI48844753
aI2232078810
aI844559841473581056
aI2866212892
aI775277658921902084
aI830404927553933312
aI4523551517
aI776263892
aI843093923526561793
aI1721468634
aI807328805996134400
aI2236489331
aI564354938
aI96433066
aI843349488400023553
aI73577122
aI3393767031
aI2278571112
aI127539715
aI844588658497851392
aI783200972847869952
aI55308144
aI4690610060
aI842312172067794944
aI978810162
aI2348391007
aI948278112
aI112902739
aI804208917433712644
aI844070413458001922
aI128184435
aI1622776117
aI112781129
aI17870275
aI1337808480
aI2405050263
aI844340230618435584
aI360050786
aI26198243
aI827079281692049408
aI2842627085
aI844592120354680832
aI800786279558324224
aI844591013943480322
aI844448969270988800
aI1546643090
aI212125172
aI450247141
aI63424166
aI111204406
aI406898587
aI4520689034
aI2631990015
aI3971946863
aI351513609
aI844451647535431680
aI19382925
aI773200309556510720
aI791037184967118852
aI305496552
aI724252977930723328
aI844563697162903553
aI285509027
aI844564339973640193
aI2871888209
aI3052267858
aI90615824
aI538363791
aI559447181
aI780488692519604224
aI45659004
aI2425291279
aI2305770752
aI398201929
aI843290888193409025
aI265348443
aI3217434490
aI844553276804808704
aI702795250218086402
aI485612864
aI844545929600516099
aI3104340877
aI3317400580
aI833711981479739398
aI765742924625801217
aI89907980
aI2484578462
aI14750756
aI756050787638411264
aI546038165
aI2471665294
aI798312960208805888
aI844518069120700416
aI901590594
aI4082867842
aI87685510
aI233773918
aI104855019
aI956157356
aI98125783
aI830327009662349313
aI844529374544052224
aI2851366530
aI120057825
aI3939999136
aI188157095
aI834963394709098497
aI2385745638
aI844519497331490816
aI1371984979
aI839839970022080512
aI33326174
aI793392336046874624
aI842032508560633858
aI2449867537
aI844516227766661120
aI839022193442963456
aI801118821440520192
aI710149055008149508
aI2478194107
aI2791844061
aI124872410
aI801051582951518208
aI701093194683936768
aI733757768184762368
aI2614660417
aI184827228
aI806757656144658433
aI844493532618358785
aI289342174
aI844490526359523328
aI844469634577420288
aI4067682312
aI200949826
aI838704357285601280
aI3162726300
aI790823450562539520
aI3035135611
aI433921532
aI759645963833094145
aI143525311
aI204769124
aI86235626
aI838470845249044480
aI843097302202023937
aI839409704010919937
aI821691488350433281
aI2909353626
aI830094075831447556
aI78131892
aI289398479
aI2903147354
aI603845117
aI260225386
aI2872987811
aI185788543
aI2252262367
aI844398865251995649
aI1964871085
aI844189729952157697
aI844398309305389056
aI844398126177890304
aI844098294502625281
aI1964652055
aI844398602785034240
aI557678557
aI2549946452
aI3056100533
aI840376844
aI315894343
aI2908107542
aI836597282418081793
aI16124268
aI300068072
aI3007290258
aI844263311956881408
aI307035258
aI184735065
aI844422393749819393
aI4916071591
aI844418610047205376
aI1497052602
aI250799752
aI2431941120
aI702707737935912962
aI767480501217075200
aI844401294987202563
aI1321817174
aI791129437882507264
aI863004044
aI3261063936
aI796201599920181248
aI296830659
aI843007728205279234
aI844381336827777024
aI14876025
aI792758894661697536
aI11451052
aI159683007
aI705583658833326080
aI626292223
aI4761158834
aI4327602797
aI844266883138445312
aI715406998724943873
aI844360738101592064
aI844359263590010881
aI2830159884
aI753386219996839936
aI233509393
aI842476768590098432
aI3137422852
aI72870115
aI763209747172511744
aI741254523583385600
aI844335123482992640
aI392476272
aI765144915420385280
aI800128694152892416
aI738572054459355136
aI834516699835686917
aI14651993
aI25972646
aI230205079
aI1095808004
aI1313414227
aI844320319028420608
aI1105842416
aI1894918364
aI803404821692694528
aI839092030999519232
aI2367004538
aI844309890889756673
aI723224071278833667
aI86780324
aI482427776
aI827272042554630144
aI16930961
aI1979552924
aI171000798
aI844288443291222016
aI844225847938703360
aI29091850
aI844289533327892484
aI45054604
aI838386065148952578
aI18268529
aI844277164048629760
aI93273982
aI817147280444821505
aI254598076
aI844273908299841536
aI824370860832210946
aI844270882101125120
aI257907380
aI14655608
aI482277198
aI126279095
aI1897059600
aI815898072542810112
aI22652982
aI81471532
aI167830702
aI23330487
aI725869751470284800
aI3147308852
aI366705764
aI2968102209
aI172678184
aI36731382
aI842087602958307328
aI844205099064999936
aI68719196
aI844226551638081536
aI20293008
aI843931031380135936
aI131885009
aI844170653146140672
aI1325572045
aI339320739
aI844246087758241795
aI514848242
aI844151147501895680
aI995321887
aI3344475837
aI839972180964282368
aI839128980737372160
aI809463873430376448
aI408740451
aI1154708430
aI140734064
aI209519116
aI834759877570461698
aI188506663
aI63836064
aI8515862
aI2579818086
aI378871077
aI2273322738
aI2814786750
aI2291573586
aI222218763
aI3165531564
aI3019881392
aI750744486582497281
aI27852559
aI2743872986
aI828726689505169408
aI634077998
aI844204897314770945
aI21399816
aI2869694337
aI59571885
aI108299258
aI844230994664341506
aI1386532860
aI3142317736
aI84027262
aI3042833654
aI763366129150599168
aI129865727
aI43344254
aI3420406971
aI22717606
aI159290195
aI4511650821
aI48560980
aI516449455
aI1843106773
aI627010284
aI844190478270652416
aI5969732
aI755951586258538497
aI2870047828
aI233783675
aI131195978
aI16330612
aI2537944638
aI3754867393
aI28526306
aI2820203752
aI2320884523
aI392305763
aI3764359936
aI91111840
aI21308849
aI715923417115992064
aI252402513
aI47333241
aI170128697
aI43954922
aI840949691231559680
aI1702355522
aI843758042835509248
aI842040480959471617
aI1412974872
aI284106662
aI1092098491
aI844201397302280194
aI3311552006
aI246959589
aI819520019335880704
aI204245545
aI844205353063522304
aI577624183
aI843339864439504896
aI385549661
aI220595751
aI30837541
aI342112593
aI2203670005
aI844067198628855808
aI1860084842
aI824388542013042688
aI816202360783511552
aI844195214415794176
aI831072631759699969
aI2216101
aI812362732523712512
aI358658416
aI748106679162658816
aI2497313065
aI4671304940
aI381482132
aI36627838
aI40796404
aI724291518903779328
aI826453242762629120
aI840108099478347778
aI842383558081671168
aI1190631775
aI1380150992
aI90721813
aI828909398693072896
aI250981615
aI1064004895
aI844169499741835264
aI24790671
aI1315946598
aI829786558312087553
aI18133809
aI17675353
aI785220154670063616
aI104938628
aI374562148
aI64788676
aI2187992498
aI404597147
aI836037585210380288
aI518889193
aI247079556
aI4333460952
aI397225749
aI780420871
aI803108647572213760
aI42463470
aI217313576
aI15260787
aI3834022455
aI818385926854496256
aI18631019
aI130361952
aI198790257
aI817095043844636672
aI844138513780146176
aI242812526
aI329075225
aI844136427591942144
aI147197738
aI372305606
aI356173175
aI844124850327343105
aI796266768545128449
aI25310975
aI844110974525345792
aI1438643934
aI844101239361146880
aI775341240560869376
aI746582874502004736
aI3123664234
aI271889432
aI835354887298899968
aI271063750
aI3095734267
aI768881129122254848
aI837041425044893699
aI4458970041
aI1160012995
aI287225661
aI844093937102938112
aI93984855
aI844091215918186496
aI705764428990566400
aI2438808095
aI736332529351811073
aI826322912844017665
aI2714086196
aI1086238940
aI2237799088
aI126352038
aI817011046112174080
aI2226977829
aI842144524902236160
aI780621646541369344
aI786547195243663360
aI345499296
aI4835455272
aI2710959803
aI844056628454473728
aI844057434599710721
aI134569708
aI75480342
aI312151335
aI3717348794
aI610022470
aI268062174
aI828063679
aI358843023
aI142136471
aI2238608791
aI703763184767754240
aI4831455839
aI838968739127250944
aI22425197
aI803964761092321281
aI322623319
aI815424333992464384
aI3158055196
aI844023930490933249
aI37258236
aI71169396
aI825099730103463937
aI717994543564656640
aI782093777305559041
aI79745041
aI843761565597876224
aI347055716
aI4698759872
aI2691629823
aI749825489066418176
aI209855342
aI555553323
aI789158080265216004
aI2935953272
aI277006132
aI736652488581881856
aI1411106659
aI352775335
aI45125279
aI401548268
aI785841132966215685
aI843979589512708096
aI4890666287
aI3208042150
aI127283974
aI320993711
aI843956038940282880
aI168898155
aI251296267
aI2513489717
aI785206512838963200
aI1162091
aI485930984
aI843944253122203648
aI872460523
aI715273441545490432
aI830817541274554368
aI836010723524415488
aI219177437
aI389801642
aI72965774
aI770067142129647616
aI933689196
aI26721739
aI806547178445504512
aI2980870119
aI4515079049
aI398859070
aI4325104697
aI303329481
aI876561398
aI1872259789
aI567424202
aI2616483468
aI762686308686761984
aI826390903489183744
aI3477724042
aI170141193
aI941659615
aI509723457
aI2330235296
aI18306389
aI3221569175
aI20017576
aI309582925
aI835183751177072641
aI2873968859
aI38157145
aI3237122391
aI55871441
aI3064995908
aI89880306
aI106739343
aI823148634
aI180998442
aI843890852015554565
aI810985156056141824
aI717365472392572929
aI715585492947832832
aI22815579
aI2403848244
aI765581943383560192
aI555008190
aI107483990
aI4898887013
aI357185987
aI915789000
aI843870644999786496
aI15787224
aI417951197
aI808814803
aI2776309580
aI2585729142
aI52198124
aI583713688
aI4905850913
aI30300547
aI78153480
aI170588531
aI58310803
aI816303568806289408
aI784020823304568832
aI87763458
aI2968133927
aI26365412
aI14379951
aI843846680369881088
aI2737886972
aI4091699273
aI835922938637529088
aI843866510779011072
aI117340495
aI1195479085
aI843511226705608708
aI70762959
aI775368851873599488
aI773659443754065920
aI17622206
aI829749429318062081
aI798908295067172864
aI793220217690288128
aI203440939
aI735465883334770688
aI3194795442
aI843858748938436609
aI267543688
aI163351737
aI203936091
aI18749263
aI839928595912982529
aI3257837937
aI867884430
aI869467340
aI81154250
aI141320393
aI842482736942235650
aI843846310264487941
aI250474467
aI77025457
aI157042127
aI110978869
aI835162716901793792
aI840106020919693312
aI41233969
aI594634498
aI14063033
aI1695451500
aI142116055
aI738756950964506625
aI488307091
aI837955109124468736
aI839846856322592768
aI2567817818
aI737693261847011328
aI2508114709
aI843589967343443970
aI51462227
aI809563511970000896
aI94647921
aI519753794
aI326672964
aI50344924
aI843051980440375296
aI796700723803279360
aI795911111711326208
aI843816915961364481
aI1028072310
aI837550388152676353
aI283935324
aI83658232
aI20920406
aI2263578641
aI843804413013741568
aI230408003
aI843799949888442368
aI843800573417865216
aI842761297011859456
aI3081344800
aI12161592
aI3046038144
aI843794195785568256
aI763681776573132800
aI818467520042573824
aI11524882
aI909307747
aI1049276983
aI3184735053
aI42078119
aI40772425
aI2774581213
aI258243378
aI843773234113781761
aI2880703347
aI3154255477
aI209983709
aI781065014518001664
aI765203064760303617
aI3058495540
aI843736224942735360
aI843763453244260353
aI2601808146
aI38619915
aI113946485
aI842911044485828608
aI780693125907963904
aI238728917
aI827452635057881088
aI2823760412
aI151795888
aI44714167
aI3302669583
aI824021252088139776
aI104067537
aI458163472
aI422416131
aI842429883468943360
aI818372512954404864
aI842484914066878464
aI843712167702544385
aI72323735
aI108996091
aI831451790402924544
aI2191684298
aI839371597479886848
aI1272331244
aI112226039
aI269611344
aI30010398
aI442951797
aI949195922
aI1535887292
aI39865227
aI1422056312
aI837002777515737094
aI750862865209364481
aI2243358569
aI2511562544
aI828538187765075968
aI785307633322299393
aI2760925831
aI141637746
aI3859101875
aI2279850727
aI799440971964370944
aI176839194
aI72526904
aI825870965171122177
aI843650973222539264
aI4563065953
aI2273353075
aI3126356050
aI842545087666044928
aI130092907
aI3131183315
aI2952373101
aI227518773
aI843631403895943168
aI791776260791930882
aI2875882947
aI4864984496
aI734031322973413376
aI842352520596975617
aI843565032340426753
aI843555286422081536
aI42461966
aI51392332
aI36884062
aI839734446706184194
aI1129287302
aI13850102
aI735916058
aI807571636077502464
aI1086700327
aI837617447901356032
aI715552480571047936
aI842372264112852994
aI1510060201
aI2290032168
aI843573409896456193
aI4926179253
aI843578206842212352
aI80195439
aI819749726937563136
aI109030126
aI995371670
aI346782711
aI2785654797
aI200582896
aI839480318428069889
aI2448823365
aI843562995645009920
aI17582182
aI804641024660434944
aI842311061206405120
aI856580150
aI529479483
aI843538036285612032
aI843546302566748160
aI843190313262829569
aI28967679
aI399405552
aI947864893
aI494336192
aI162443313
aI843533328963854336
aI843409008845295617
aI842412340796624896
aI2997504673
aI929719766
aI781380558823694336
aI929176855
aI843301910669135872
aI401286869
aI843512242675089408
aI843489213081444354
aI839935177380007936
aI16450647
aI952048176
aI587475293
aI836828943986601984
aI194358655
aI58209779
aI824285808412729345
aI839759625666904064
aI4544815495
aI843499933210697728
aI296848698
aI826533722451243010
aI165167418
aI4237560515
aI319771920
aI537387759
aI825516025491906567
aI843484892730155009
aI27603388
aI2895722624
aI544221673
aI757844106768814080
aI842640771593441280
aI591356177
aI827923590418870272
aI3310282436
aI2921527527
aI831402390968492037
aI746895271083180032
aI2696268422
aI843474598549176320
aI2811114429
aI59357362
aI3231424034
aI843468359140237313
aI43786158
aI828824492109619200
aI842872077220691968
aI345833455
aI805853035696156672
aI2388707540
aI23536493
aI257774296
aI823007358
aI843455558107774976
aI747032523335680001
aI2903308802
aI843454714276659200
aI843443123208577025
aI1857797041
aI817438167129329664
aI2609051306
aI941671783
aI14144804
aI771913666807599104
aI101572331
aI823751040826679297
aI726359994883403777
aI3301484884
aI843420902859718657
aI843418386528911364
aI3640638073
aI802890971008630784
aI329436430
aI2548573765
aI759550537
aI506957830
aI483738256
aI837598713346412544
aI746734541331628032
aI2313573823
aI718894651403427840
aI1065648042
aI1560681
aI4288916181
aI711798262441750528
aI843365551091208194
aI843381911741517824
aI1388330942
aI843370639004114944
aI842792448711524352
aI843377826334171136
aI3929228669
aI811496535129280512
aI537209898
aI1070647040
aI2256383015
aI394329703
aI586046181
aI808766712887656448
aI1115729598
aI543867579
aI802530601492299777
aI166137188
aI738260726121431040
aI842968903852707841
aI764837693067001856
aI19139910
aI415183923
aI1313705995
aI2360889236
aI384191695
aI841054170505441280
aI391300532
aI21841556
aI465941673
aI38753184
aI2427780764
aI547293908
aI1855376023
aI278631289
aI209823501
aI825168044993372160
aI16162076
aI305898863
aI710064050193846273
aI142070527
aI842901906779385857
aI117600622
aI818437030048894976
aI843245678893711360
aI792645905103093760
aI797439059115278337
aI100911498
aI843240112045678592
aI23624714
aI3821826869
aI210202389
aI1402035529
aI1264550994
aI465013080
aI955849374
aI796027896993316864
aI386195354
aI4212437128
aI828416407343751168
aI250341083
aI2177598535
aI25167011
aI159011998
aI183729286
aI2195547908
aI225188699
aI4830849484
aI841359761945841665
aI107342071
aI3385217105
aI842963719520899072
aI746636598536609792
aI839518847342370816
aI3313184492
aI2788882659
aI40676561
aI2178503209
aI1404111936
aI3308314222
aI19591614
aI279821500
aI726640866815700992
aI833938702913110016
aI54935657
aI843149536092717056
aI98056085
aI827237639401136128
aI75112828
aI818805776575844352
aI843145876205981696
aI519198657
aI843010000440168448
aI173681937
aI4749596717
aI1512192614
aI231874931
aI733819887634681861
aI843125299743199234
aI17765927
aI779032547976028160
aI305522218
aI790135491601502208
aI833742021953220609
aI836806572126896128
aI23384862
aI815699105754312704
aI933199855
aI432007236
aI822967659834785793
aI2860457213
aI3218823062
aI843098217927643136
aI936852858
aI300728948
aI2696280229
aI700683914
aI91566472
aI1028800579
aI323227102
aI4906754631
aI788666460176547841
aI843029967348940800
aI820749007
aI56704234
aI843018888958918657
aI42900463
aI72807088
aI48765959
aI1589723568
aI839265878550147072
aI2734045342
aI4464439097
aI774215729486757888
aI843039265906982912
aI3016461625
aI163163910
aI554289193
aI524142293
aI2911609432
aI1662262694
aI190778605
aI3298499844
aI843050612665323520
aI841378206691295232
aI800993452083265536
aI843019838620667908
aI1033311044
aI3082474712
aI4677481993
aI20445864
aI2929240189
aI2854274151
aI327929253
aI711900442121400321
aI101785004
aI840439397585735682
aI833346905497219074
aI797746652920549376
aI581226990
aI126291799
aI617378844
aI3255094190
aI3166224306
aI798175232
aI842977080811765761
aI794457441647792128
aI842972358436687872
aI839923295302610945
aI111943151
aI842961546103967744
aI841491304802574336
aI856697041
aI942328009
aI167837373
aI706875981236023296
aI842953770287992832
aI2782642790
aI36036231
aI1430610583
aI750897558738919425
aI2720710465
aI571094535
aI3491759533
aI3740451614
aI1432639735
aI826807422299815936
aI40709612
aI2835127764
aI63883638
aI824741343721377792
aI819088284554907648
aI213752371
aI1562093136
aI765183035037716480
aI323974328
aI828554234475864064
aI32930026
aI447174293
aI842892139122085889
aI837632484754010112
aI842135701747597312
aI1286853552
aI773583045890899970
aI325011107
aI217615275
aI390361386
aI833793581718630400
aI101425645
aI58483498
aI181910802
aI46881895
aI806342325077090304
aI829444206884171776
aI281864928
aI842787690319937539
aI842819985248567296
aI9724472
aI2151027990
aI76893074
aI829352147435274241
aI339255284
aI15487280
aI279670128
aI842832124940042241
aI107731756
aI709244128161300480
aI782178104483676160
aI3003253666
aI842797150417297408
aI841640815533383680
aI122311640
aI806922785012338688
aI3661584083
aI835291300907753476
aI125696562
aI2930421933
aI1173778716
aI913550450
aI842451422025252866
aI58846963
aI840620140580413441
aI82477628
aI72752973
aI581608565
aI838894181162573824
aI700597800644399105
aI755122781537263616
aI2277760386
aI842790784659308545
aI836568446406119425
aI1231882608
aI3626635934
aI802342117687234560
aI708460660527595520
aI842772291586932736
aI154336089
aI719179761273049088
aI778538609359986689
aI711639002
aI18756565
aI2718287539
aI779373485776830465
aI3904473079
aI839849403707981825
aI707762414
aI841230616741961728
aI25436116
aI829971029518716928
aI732563753364017152
aI842731954810314752
aI21489559
aI785394980810526720
aI842753993239597056
aI786120177473642496
aI4898969277
aI842746024439533569
aI833663030869258240
aI842754588520267777
aI842755982916812800
aI106047392
aI1940233706
aI280906094
aI3908189601
aI13793532
aI3246078094
aI817258394557890560
aI842672826272419840
aI720926811702628352
aI814880687190900736
aI780334297177657344
aI3312416421
aI770920228024881152
aI77187372
aI708695635
aI576867268
aI841603870207954944
aI808680789139484672
aI802024230544146432
aI1363860655
aI1322396437
aI4833226391
aI842727795348377600
aI4185611877
aI199217758
aI731325865431158787
aI84693698
aI842722991075078144
aI3099524892
aI2163333889
aI376548897
aI243622981
aI840905765581803520
aI2385405223
aI348915056
aI103218757
aI1552799731
aI559807743
aI3147015764
aI609238817
aI2461753933
aI1058489930
aI827764423716593664
aI842706670367244289
aI327935545
aI838639597064171522
aI1657450040
aI752771480157642752
aI3318567005
aI842697735153377280
aI123607690
aI1158928226
aI298388747
aI842691337262710785
aI102560324
aI27133835
aI790930921478352897
aI2776231896
aI16843839
aI4033682836
aI103918302
aI244174059
aI601994809
aI842677160594702337
aI841388296731209728
aI348342274
aI203017943
aI799589904384540673
aI842658130664308736
aI787207593718484992
aI3088305245
aI238840533
aI842649653640347648
aI301400746
aI398007733
aI293229337
aI887756304
aI794959322606407680
aI418671426
aI841142467504168960
aI738011648875626501
aI842634264801759232
aI842424463048101888
aI842626729776701440
aI2492668586
aI819593368808411136
aI842608038288674816
aI842622479310901249
aI3284085734
aI350477376
aI3433377903
aI796949482009194496
aI1429822464
aI345912989
aI842607535102279680
aI839356806472187904
aI722567477675188224
aI842580270700142592
aI839913806352502785
aI3271746360
aI842597643490549760
aI245666621
aI840618779973423106
aI1101116305
aI842582696844902400
aI842499675005575171
aI112465269
aI823672093493563393
aI224252401
aI134208255
aI1500021289
aI787124616544317440
aI152866675
aI789384406364397568
aI15450875
aI774756542373507072
aI255786346
aI838174060878180353
aI702214495
aI23263069
aI966266137
aI824941832719179776
aI842565320413995008
aI813039
aI977233146
aI93985047
aI2224237906
aI30898234
aI833878234773102592
aI254358254
aI842520818764709888
aI841620132132749312
aI763337
aI228127063
aI4176722307
aI137539578
aI1506054782
aI71493881
aI515798066
aI62536280
aI1062970668
aI51243246
aI3231112462
aI281584873
aI842487323992477696
aI796053907877298178
aI205804212
aI327332158
aI804069097575096320
aI801232158354534401
aI3988206413
aI842470634219311106
aI726030248
aI2269143060
aI34161570
aI95027897
aI3393582023
aI2922057730
aI780798887439110144
aI1239699992
aI2938383531
aI627727870
aI10811142
aI436531592
aI842460111062880258
aI3827038874
aI14497662
aI2984481269
aI717765970174091264
aI46783017
aI836626142928977920
aI769681298457669632
aI2380723110
aI924361172
aI57717791
aI2897428919
aI2787208365
aI804753190365392896
aI2383783896
aI42305238
aI842433286882398209
aI438585187
aI2854486770
aI834134418373693445
aI221164229
aI38153177
aI20567739
aI1256697524
aI4046556132
aI28034822
aI838178872181030912
aI53453458
aI3135719420
aI589957642
aI74134253
aI487757686
aI601969550
aI740111684992389120
aI21020848
aI794189109040386048
aI805818371291938816
aI1608746652
aI14268690
aI841984391127670797
aI841715840764411904
aI2153348802
aI842408836669530112
aI4795339054
aI56829205
aI706146478994137088
aI110990464
aI151434112
aI544363142
aI815674523022491649
aI46169395
aI4419224295
aI167001625
aI802028229598973953
aI67301976
aI268136986
aI417898030
aI72504919
aI780407517457309696
aI842011932643213313
aI708404473517969408
aI2967941411
aI314353586
aI33787481
aI837396193558806528
aI3412342702
aI42940883
aI827943375064092672
aI163442259
aI1685305249
aI173030153
aI842378974202343424
aI2674433863
aI840612178617028608
aI841727288651718656
aI2994632335
aI842374718166577153
aI45386819
aI52914522
aI3169207061
aI785696808542560256
aI163377393
aI52230618
aI840304306494431232
aI436131425
aI857163524
aI1162452096
aI883624357
aI817077967520153600
aI2601684373
aI4068070879
aI190702193
aI842347206996815872
aI842357441077616640
aI117375735
aI817038659618799616
aI747165973707317249
aI788450532889206784
aI842252120376008704
aI14961149
aI113320902
aI137632704
aI2477978239
aI1305012656
aI826432840921448448
aI836504860090589186
aI827153029359104001
aI4152415227
aI33458880
aI970941188
aI93719063
aI2584179478
aI842333255537958912
aI28340885
aI2974486630
aI833400018124029952
aI30114370
aI718402166495584256
aI306713504
aI60219731
aI829893498656669698
aI842317845652430852
aI842319575299588096
aI842316233785647104
aI804308758935519232
aI197092419
aI73488283
aI789023808262897665
aI260391644
aI516407393
aI508605942
aI82844176
aI200216086
aI262457437
aI842293606471864320
aI716340396515655680
aI2393619178
aI567283757
aI2212135041
aI2586932310
aI394881222
aI801693082420789248
aI2494807046
aI834098369924567042
aI3280071613
aI816848403963461632
aI836185707194437632
aI126484072
aI2191275313
aI828922589795999744
aI139102173
aI253405374
aI768803726618492928
aI2266137444
aI833727561637183488
aI11306682
aI2472564561
aI139069322
aI19617096
aI14929333
aI2568847905
aI285975836
aI841653396310482944
aI26414079
aI812686677541928964
aI433440220
aI803569139667173376
aI842153588403118081
aI839324106432512001
aI824824573065621505
aI118753664
aI825768132962709504
aI1008473672
aI2208114067
aI708320479350808576
aI706861790
aI14985250
aI841833887886012417
aI429868264
aI3046671259
aI354197443
aI385726323
aI3331187321
aI92373827
aI3013705636
aI825559657636847616
aI839188174614188033
aI2916932498
aI3399008704
aI841643589901914112
aI847330668
aI842064115946409984
aI839897781510815744
aI2738527475
aI1418202812
aI805407573126090752
aI30876491
aI822817447183007744
aI547045417
aI1377865508
aI834947514075795458
aI2835703405
aI3412241835
aI700806119615131648
aI2510981114
aI29540280
aI1894468014
aI842104191900368897
aI793756756891541504
aI841729320926212096
aI30394712
aI312553344
aI824432130444890112
aI1561534279
aI36187232
aI840038306431811584
aI42552403
aI4267873774
aI3089801453
aI37556311
aI92362433
aI1847931264
aI2906248110
aI4806643881
aI712682044942319619
aI786097387987202048
aI828963807817035776
aI1374258949
aI4729412818
aI836209507759976448
aI37462804
aI812000593770381312
aI545403126
aI761998211015999488
aI824942443514720257
aI105750541
aI56264961
aI233186357
aI2569826478
aI50254171
aI35585627
aI329706041
aI328065191
aI841967168132648961
aI22940099
aI733283152924311552
aI53183708
aI73300374
aI904179439
aI842070696670842880
aI158690377
aI15062188
aI2177846653
aI52809947
aI70785395
aI162350105
aI17784861
aI711176585911492608
aI464489691
aI2924183118
aI1290084938
aI536457189
aI1365196909
aI274749247
aI239122519
aI140537252
aI836159631722483713
aI174517148
aI839375469392822272
aI15239854
aI234937767
aI119566905
aI837173904007290881
aI842047616712081409
aI760092578
aI801769494997860352
aI2979376994
aI793140430380666880
aI712699612042113024
aI830233869618126853
aI897895830
aI7408242
aI2485035643
aI836753528433565696
aI3469062915
aI841474941627260928
aI839497328545447937
aI418353803
aI3881180242
aI4784801383
aI142398985
aI842016406690508800
aI790166355957911552
aI740793939607867392
aI829018726049644545
aI596723810
aI888749347
aI147266618
aI755111550768320513
aI842016426311471104
aI29455398
aI72997483
aI3683834849
aI143421563
aI59904551
aI2609457816
aI845892529
aI841128054881734656
aI813816290720804868
aI842009463343222784
aI114482870
aI796717982319837185
aI350661155
aI389551993
aI2707402698
aI33165590
aI392310005
aI4284375327
aI2197421940
aI838791342188818434
aI823544085067759617
aI3437130521
aI803609527073538049
aI841997646885662720
aI90023573
aI3401516709
aI839909231734239232
aI1696003549
aI809293783124811776
aI3811716853
aI1701545551
aI840204950344945664
aI217765400
aI297370350
aI832981386923499520
aI2791348598
aI1278250988
aI86980973
aI51062608
aI134028467
aI1685389700
aI352965413
aI262154895
aI841596482599841792
aI706139162554998785
aI557669311
aI724483125129142272
aI801773593650663424
aI1055302687
aI722060762185887744
aI841949866557333504
aI4385183832
aI379208988
aI2363357838
aI104229136
aI256938858
a.