(lp0
I2870538355
aI609685768
aI122948489
aI70171669
aI96612056
aI835567518
aI326936672
aI2459217985
aI2798530279
aI215186945
aI82111833
aI23568046
aI2612470566
aI1375084248
aI890254574
aI1716022747
aI606836940
aI2842376314
aI481237164
aI16291694
aI2804540210
aI16190369
aI38656545
aI1965510920
aI392265488
aI97517132
aI8961122
aI535833802
aI2762128315
aI2786245953
aI182948468
aI219463490
aI2824159572
aI2828292767
aI608941444
aI240299309
aI425192577
aI905887957
aI247253292
aI2842548125
aI545047681
aI2804750552
aI2842176539
aI2294994174
aI1237109414
aI2456048537
aI2877204403
aI2868057114
aI44068866
aI2669045684
aI2836344029
aI2583006044
aI2868696469
aI2852691294
aI2801826496
aI146583761
aI383459022
aI2150385506
aI2876219900
aI2332746920
aI385354807
aI2245398626
aI108730766
aI23343277
aI53085892
aI2826697453
aI2394067473
aI318489776
aI907927254
aI185676771
aI337761424
aI2876997824
aI564554023
aI1655802164
aI2814452812
aI247963474
aI2802496480
aI2303557180
aI2421726666
aI300209697
aI2830283785
aI99791384
aI2794635812
aI315686147
aI2386697138
aI497772507
aI140346129
aI1482188030
aI2875828556
aI2786441205
aI2875726148
aI2876844558
aI2849285005
aI1381535660
aI2873759773
aI42318782
aI2856862621
aI2291315406
aI478843973
aI2823522929
aI323207098
aI2875473878
aI2843698756
aI2685576481
aI426391777
aI2869051538
aI2841113386
aI2682752353
aI345376621
aI2555089165
aI2831302839
aI23333065
aI1181001126
aI239398858
aI446109034
aI213086237
aI257359519
aI2608087429
aI2791762555
aI196047411
aI850680728
aI1630134319
aI2837906615
aI2797688802
aI2587846231
aI75090159
aI2330633012
aI748850826
aI424944965
aI321199594
aI508932326
aI2289380589
aI2749022540
aI614322477
aI1257357966
aI16282915
aI2850405710
aI84066706
aI2848792711
aI2826685244
aI2162422506
aI2849823157
aI2842579115
aI1561708104
aI1729293980
aI2652763864
aI1394632464
aI497114854
aI166918468
aI2313444811
aI449671401
aI93951979
aI2876448860
aI2868579978
aI746802248
aI2876170094
aI2842827567
aI260504520
aI709020756
aI79737449
aI2297382038
aI81354901
aI349689977
aI1666901894
aI2876477845
aI2876401016
aI2421493256
aI2446325155
aI2827514358
aI2876351204
aI2582493034
aI541572556
aI2876416327
aI417972451
aI2876374441
aI738448272
aI103174682
aI102712791
aI2876305766
aI2280128557
aI198609716
aI2464171574
aI289271042
aI1346567329
aI2868808118
aI2192364949
aI32710001
aI1710352764
aI130063053
aI155770241
aI1059234931
aI397727650
aI2857574514
aI2876002764
aI1333759086
aI800192743
aI2492883368
aI2597618714
aI1921027778
aI156225848
aI2874498710
aI2201021089
aI387157682
aI772352743
aI2717842046
aI2445370435
aI841577550
aI2876084162
aI292751600
aI2722010228
aI2875981304
aI2685015304
aI26018717
aI2866868845
aI2730296512
aI2876000959
aI2872375286
aI2471677243
aI399665046
aI2875942412
aI1330563996
aI1631285088
aI180669103
aI2874442171
aI2837924760
aI2288634066
aI1617551222
aI546789126
aI1187028919
aI2840732225
aI270320538
aI2875839769
aI1920580284
aI175124625
aI427952013
aI175459665
aI242622603
aI2875826208
aI2742506250
aI382064606
aI2784742615
aI2860289868
aI2873513762
aI93209992
aI2842907109
aI533059906
aI2809615188
aI1040761476
aI2842195018
aI2875231286
aI16833428
aI91251853
aI2501707795
aI214559587
aI2696456880
aI396108875
aI2273068687
aI95938864
aI823481216
aI120822823
aI44445835
aI1837643875
aI147887425
aI2773876078
aI140913836
aI32648277
aI124347117
aI547021429
aI193006718
aI2837944929
aI555566250
aI384887089
aI351001816
aI2867125747
aI268302174
aI1448658198
aI127262657
aI356790464
aI281828296
aI2817302715
aI2875655034
aI1967912209
aI194040995
aI2875717747
aI30235737
aI2360931510
aI260709098
aI43433458
aI111702107
aI122951500
aI227641813
aI2852777762
aI65697951
aI29009892
aI611409915
aI14621111
aI108129377
aI34633585
aI2842065533
aI2366573354
aI273817051
aI76572162
aI2842632501
aI2794568393
aI2161891722
aI2522958866
aI20102067
aI2842526805
aI2875478731
aI176891545
aI20376276
aI91280294
aI137940774
aI2489165077
aI20159816
aI2842595043
aI1145737670
aI107662293
aI2723789156
aI2225697114
aI362764432
aI2457834428
aI2658979861
aI2832170881
aI2563314896
aI1948583448
aI54249125
aI7846552
aI1488295302
aI2842572155
aI2234250824
aI445461525
aI379646123
aI2732164752
aI2526340231
aI1480547300
aI2831894720
aI2842561535
aI229319171
aI365892703
aI2874788786
aI2842606708
aI2868679400
aI87414869
aI2769633048
aI2342560651
aI2714906774
aI2826948408
aI2712350312
aI2837204680
aI2864393802
aI2875044042
aI2268960223
aI2181856716
aI538287720
aI563966820
aI555902756
aI1513181953
aI362932554
aI130769670
aI582735299
aI1425487814
aI2174697745
aI260541506
aI2842560844
aI2856066852
aI1023858786
aI2839686172
aI306177066
aI936891528
aI61225660
aI244932855
aI2170088952
aI236377928
aI2547940346
aI2360312395
aI380930079
aI72579801
aI310754668
aI2277345546
aI94051169
aI2868601340
aI2841594917
aI602832340
aI2568504670
aI2829582215
aI250052406
aI2842504192
aI260209730
aI486786296
aI2191704126
aI40487655
aI243900800
aI2842454681
aI2544316598
aI2874815233
aI260266323
aI329501640
aI2348426906
aI1024113992
aI1217616938
aI2865513061
aI2679099895
aI2842410243
aI1047226058
aI21516821
aI1922309630
aI185501043
aI712206631
aI2785427642
aI2842393995
aI2865924368
aI1338793424
aI964603502
aI2570268727
aI260806724
aI16690229
aI1959825974
aI41873692
aI66877356
aI87946886
aI2155874964
aI358871877
aI23894127
aI2584791578
aI2870306516
aI2695955461
aI1072577857
aI1626055862
aI33628949
aI2870581020
aI630646852
aI2842386046
aI797405540
aI2714444971
aI182421188
aI2222237689
aI2257760444
aI2739356197
aI159432930
aI2874369384
aI2760934370
aI259098006
aI2353192537
aI34686032
aI2780713847
aI371602985
aI291148161
aI2156340932
aI270719202
aI28502706
aI110495610
aI408801650
aI1175558509
aI1553599844
aI47874909
aI2511399872
aI2431633396
aI2842192179
aI123310860
aI124221329
aI350668594
aI2846883878
aI249984103
aI465952362
aI2147620490
aI2537893328
aI238947893
aI19747036
aI2618777241
aI169450275
aI2842202915
aI884071404
aI2841977049
aI138170618
aI2201735660
aI301705471
aI2605451796
aI1011010994
aI54185008
aI2463723841
aI620133561
aI2800513496
aI2874043219
aI2360297971
aI861965240
aI2874000487
aI2493948659
aI1638345367
aI331779879
aI1498012580
aI2216399190
aI16454222
aI283661681
aI38155503
aI25270425
aI1209053870
aI2842153804
aI176464640
aI2571761054
aI322479124
aI403577837
aI1472944254
aI2842081971
aI15005122
aI430567315
aI2825192596
aI194565874
aI224457388
aI913693951
aI33608409
aI2303845688
aI127002683
aI114799010
aI789544399
aI2792134116
aI36337667
aI2864377783
aI213849261
aI6593142
aI279145199
aI740489244
aI193925364
aI2196240986
aI361655129
aI2581442616
aI2869159736
aI2736287857
aI62862239
aI2741833408
aI58453750
aI2873680825
aI330339799
aI176696461
aI1894460124
aI76593425
aI107101945
aI2548740210
aI599209968
aI240152368
aI2738958020
aI973524558
aI2800066684
aI2839515578
aI2833544318
aI360149464
aI2390563046
aI87986657
aI134382469
aI2864509040
aI258777906
aI267836473
aI2873509022
aI2542082144
aI2757670983
aI227462459
aI41422870
aI2266359065
aI315932119
aI24793460
aI712012686
aI1919449266
aI168571380
aI2840010739
aI1331904469
aI2264530862
aI61556124
aI2817722047
aI535606502
aI2840858073
aI427627590
aI796547796
aI2826918511
aI312290405
aI108693827
aI354626456
aI2840548791
aI2841927730
aI2665336518
aI2873388912
aI2841902597
aI427547578
aI357836070
aI454955743
aI2783960397
aI515543140
aI2863964994
aI564941699
aI2738097794
aI2841169871
aI330376798
aI2794911683
aI100135257
aI556239280
aI78857030
aI2196475728
aI2853343302
aI224795031
aI274475180
aI2840647005
aI2214239529
aI16152026
aI441676508
aI2864584748
aI118372535
aI1941871766
aI2280585978
aI63694689
aI2873121680
aI1572439765
aI2849928169
aI2840019770
aI1118446315
aI553339618
aI286947436
aI1575617366
aI2850611538
aI163759528
aI2841843196
aI26212226
aI525453082
aI2835493297
aI2197884323
aI209545918
aI263160197
aI1060043712
aI1124357479
aI2578430352
aI21865870
aI2417300233
aI152658768
aI2872934676
aI2872544371
aI73091283
aI2559080092
aI2872982515
aI2574275742
aI734510803
aI2739436653
aI123668366
aI2835559214
aI14617222
aI2150512458
aI1518654188
aI15704771
aI244646176
aI299853410
aI250269028
aI184292770
aI608477821
aI224571859
aI2202906356
aI2871766926
aI2525949596
aI2848465580
aI790847196
aI2868938204
aI2872817929
aI159899260
aI2499901182
aI2848835844
aI2820015624
aI6615672
aI2780508264
aI32307366
aI320220564
aI363020669
aI458475674
aI2851516045
aI275117464
aI224424138
aI245696338
aI126877066
aI1440349651
aI218007847
aI114783503
aI1128513848
aI1629771295
aI989982902
aI1588123038
aI2841668225
aI48728566
aI189811307
aI1110710918
aI12962312
aI753303438
aI1534157892
aI2836128833
aI2194952750
aI2614676311
aI51255554
aI555565670
aI2406091211
aI397468547
aI45622053
aI1477940286
aI1228926217
aI2751984601
aI2840403970
aI143743391
aI2155849692
aI2216033073
aI320882564
aI194616094
aI1977080550
aI245390039
aI2228808848
aI339808515
aI2844694824
aI160147665
aI1623135278
aI246592389
aI2525350508
aI2696653893
aI2834308930
aI2568153001
aI2802171962
aI2220743222
aI109425430
aI2871676178
aI1292894311
aI1966942676
aI146566481
aI334192201
aI36404430
aI17376637
aI2841571126
aI2824868749
aI148125171
aI2259920919
aI573257238
aI2867134669
aI50282253
aI48062592
aI2871885499
aI762376626
aI222242856
aI919092859
aI2841475239
aI46946368
aI59701358
aI2868650240
aI19151217
aI220808034
aI2837221018
aI56993378
aI14426974
aI1180808306
aI198976131
aI1104996248
aI284556517
aI19511968
aI2763316440
aI47541463
aI632075577
aI2469752078
aI2652471146
aI1049300598
aI2865335809
aI56123084
aI15359126
aI109007757
aI470560302
aI47102414
aI2234841326
aI2841426478
aI2848307540
aI1430094187
aI2754759957
aI970520497
aI2748939157
aI1154626538
aI1145593436
aI2601057872
aI326407450
aI2839561000
aI498774847
aI21069963
aI95882007
aI2835642649
aI35587917
aI2531260968
aI839498160
aI255724911
aI280345367
aI2716729303
aI153960538
aI2651796846
aI2518573597
aI20748873
aI2856100933
aI2725196637
aI24178759
aI707101656
aI2639748249
aI524087488
aI2840102044
aI2805199182
aI2802193252
aI2560965633
aI2520622538
aI2731867701
aI85057040
aI1457301834
aI1365154088
aI2528112954
aI2788838385
aI181532650
aI898356678
aI1285178928
aI14363713
aI267303777
aI446217235
aI2563073384
aI2587077559
aI978546114
aI608650516
aI2839540559
aI363037587
aI261013655
aI2841191723
aI241282362
aI1631393508
aI2833141205
aI14615231
aI16907431
aI594697421
aI2841175180
aI125711137
aI704972414
aI171156351
aI75579915
aI2801650815
aI281893301
aI291260395
aI855346699
aI127292529
aI402718883
aI61088324
aI2502335808
aI14965117
aI142612513
aI260941712
aI109417949
aI235612265
aI2456662566
aI2472437768
aI49170047
aI148293082
aI1227977605
aI2785439598
aI356378098
aI2493048722
aI2725490023
aI2591179333
aI2733782960
aI420317360
aI58439786
aI1702613838
aI2809492248
aI76603750
aI2841156916
aI2841102873
aI2841064091
aI1347255096
aI2800300417
aI2865392640
aI2797829849
aI141938553
aI2272525255
aI2778519786
aI924963926
aI2847044726
aI145696610
aI2354781872
aI2515196395
aI2338137861
aI87733286
aI1026877513
aI2464811313
aI101970799
aI61939614
aI532199253
aI14671144
aI528773875
aI92809249
aI273372230
aI2497213860
aI2841022925
aI2389261279
aI379309046
aI520738232
aI326547941
aI248149602
aI469980660
aI837418873
aI2850142608
aI549340698
aI2786992461
aI2811445788
aI2408869477
aI1665502788
aI2333287207
aI2864965656
aI2806572201
aI18330675
aI349420173
aI194043806
aI2866610893
aI528373825
aI303751112
aI94587866
aI2819484330
aI2859964951
aI103857510
aI2659088626
aI61731912
aI51786388
aI901612160
aI2809648522
aI497708583
aI2736696121
aI2310979322
aI291983231
aI38424312
aI44304266
aI2864182129
aI69081365
aI2458007472
aI2870093664
aI448738345
aI968905399
aI610626410
aI264421916
aI2802459467
aI2855988300
aI17330784
aI1141428092
aI738291913
aI229384580
aI1561740199
aI1623105930
aI993241489
aI2806690897
aI2864615569
aI2836331548
aI2237836525
aI2422717777
aI366273741
aI604638207
aI2393980070
aI402248698
aI2868410742
aI2519181145
aI49273553
aI1229302147
aI93418258
aI2870051316
aI2857517994
aI2777003978
aI2835795004
aI193459693
aI15045158
aI88797216
aI179590249
aI2869066927
aI2650732295
aI53247211
aI1432444904
aI201176811
aI722385925
aI172219529
aI2830838741
aI18629782
aI249446387
aI1192823138
aI1592401700
aI392090747
aI133824204
aI2837895845
aI2859421375
aI2840280573
aI2815641439
aI150354133
aI52924117
aI2753373359
aI289044860
aI2352274706
aI288821551
aI1013714318
aI2849278765
aI184544770
aI2869840232
aI851266202
aI608657020
aI2763902783
aI324638408
aI2846069642
aI393659235
aI51715208
aI374756852
aI22254520
aI2818877785
aI2696997306
aI284964721
aI2795290245
aI1709836099
aI1537345004
aI2837801781
aI2595622039
aI417920355
aI2779361936
aI2830631897
aI2295221226
aI2838078515
aI68174863
aI2584670329
aI898876580
aI2868056328
aI2508573714
aI31219720
aI2301767155
aI2805724661
aI113320617
aI2769464130
aI588855821
aI2866272236
aI113562461
aI2371270518
aI2189186892
aI32140758
aI2685922723
aI159808060
aI207617689
aI40167638
aI2788066239
aI774383276
aI2492784331
aI2869574557
aI349482556
aI46389360
aI23468837
aI21146620
aI2814910242
aI1055598842
aI291877382
aI491741638
aI2804792140
aI51196999
aI2840637831
aI72196405
aI537680897
aI2325273163
aI703390662
aI255535480
aI2840611005
aI937197505
aI17113195
aI2869271256
aI14175852
aI2869394713
aI239932655
aI2869361636
aI304049559
aI283048715
aI2772987282
aI78310193
aI83914430
aI1889845682
aI294568383
aI453227899
aI2837637069
aI2384173946
aI100956937
aI41887860
aI965029633
aI1882842450
aI53200045
aI96396837
aI452794366
aI2566725085
aI2832638837
aI2836386363
aI1145859162
aI2840557209
aI2835395688
aI429173830
aI391961690
aI2838281289
aI2843594665
aI62323335
aI33424105
aI163952257
aI62771327
aI1931725344
aI2665463036
aI958007359
aI877765286
aI108512550
aI434713960
aI707541042
aI1938876972
aI206444633
aI274555081
aI78608636
aI2784031222
aI82456377
aI2811091688
aI1694759684
aI149278488
aI2348611747
aI56401685
aI417286915
aI2290717280
aI960186529
aI2858344291
aI2786918381
aI2798882200
aI2706905106
aI19160801
aI134913986
aI37669362
aI278956727
aI2800401086
aI1526799619
aI1324187330
aI484875145
aI529632023
aI771318600
aI14364334
aI2803661490
aI2820125550
aI2799966649
aI152202771
aI2839951283
aI2840278731
aI2727265768
aI2844934549
aI2171901042
aI129466947
aI614854271
aI242299481
aI2862510476
aI41858216
aI362962742
aI2837964341
aI443932006
aI1331633173
aI132561869
aI1163968663
aI314187383
aI2836429029
aI2464968424
aI205399788
aI228156701
aI2840185096
aI2840120013
aI2840159129
aI2786485887
aI807245839
aI197519349
aI2336772714
aI119071353
aI2854676570
aI2656886042
aI2856870037
aI2869069999
aI2581632534
aI167821609
aI1710967050
aI607294139
aI178102283
aI335422234
aI1635646794
aI2782496348
aI2175804169
aI420191716
aI182958939
aI73522142
aI2161194943
aI2844867656
aI2600478836
aI2840082478
aI1708937425
aI1540079623
aI2291236615
aI2517678464
aI25667970
aI2798666123
aI165491144
aI128242439
aI1880513946
aI2842495716
aI2726299472
aI385687087
aI36668358
aI63417664
aI2839930221
aI2649328538
aI1694955696
aI994642951
aI22121036
aI127271155
aI2866485102
aI2854822188
aI278029752
aI612755272
aI222060680
aI2653295924
aI2798607497
aI2836939763
aI412862065
aI637313203
aI743265714
aI2437045916
aI1684097168
aI2339406079
aI2866961670
aI943127724
aI569824750
aI135966352
aI2850158040
aI453631966
aI2838350991
aI2866406575
aI2864769000
aI2797833050
aI2829383016
aI9208372
aI2829453213
aI338382249
aI2811132416
aI2196266219
aI1110920491
aI2864887981
aI1633117003
aI2858070079
aI2862265110
aI129945198
aI247854846
aI1691127030
aI507985665
aI1401221594
aI26006381
aI1574444587
aI2825375891
aI935176604
aI2837953896
aI2831274791
aI58890700
aI26207336
aI554465348
aI26740148
aI437512673
aI523187511
aI962717696
aI2838642912
aI368748545
aI2868575340
aI89078252
aI49613322
aI2829239740
aI2499350402
aI508496056
aI2179769478
aI219444201
aI2392862264
aI1379005970
aI2280243595
aI2839605201
aI2617129262
aI28343760
aI1930591669
aI2720404155
aI360852093
aI1391350777
aI2431729502
aI2835706654
aI2835430634
aI163144268
aI555122121
aI383894795
aI59386583
aI551956376
aI2766069810
aI2839503561
aI2498372407
aI1418719796
aI738499548
aI2862227564
aI1927026523
aI18351104
aI356368291
aI274444824
aI154776442
aI804899978
aI2558893250
aI122332123
aI79404635
aI2616859350
aI2833838542
aI1343517846
aI2839422863
aI1574835444
aI2799618635
aI2868564300
aI2825327043
aI2753895265
aI269093215
aI2799082669
aI2786186122
aI2173771916
aI2859713546
aI2478674712
aI2686385803
aI1606295761
aI55317533
aI2810834053
aI238702140
aI2810949554
aI2581498818
aI2619201927
aI716419352
aI17832668
aI130703890
aI203831352
aI218446985
aI2620099417
aI2863652875
aI2258837510
aI2826655947
aI146851150
aI2868278868
aI2151232278
aI539218590
aI132397616
aI458473686
aI326803676
aI118084812
aI39119553
aI1557122106
aI198230963
aI2574365762
aI2744067950
aI188611650
aI2839122815
aI22901583
aI2787644404
aI2589919500
aI702378253
aI2821128311
aI217746428
aI252190280
aI2788308739
aI247559144
aI2749921275
aI2849988583
aI2598703735
aI2802075607
aI369227787
aI101548404
aI2808533052
aI2340486745
aI410349167
aI2851528760
aI2861300004
aI39675534
aI2860963416
aI2856967657
aI243868034
aI849153324
aI297190195
aI2161458014
aI337026465
aI2321553949
aI1384021164
aI2868327206
aI20062070
aI2817568851
aI2818106812
aI382458872
aI374209430
aI20354632
aI465667919
aI2799003176
aI917024119
aI400345964
aI75355315
aI2222574561
aI178932734
aI2569066128
aI2859248713
aI2227058912
aI468557537
aI166458382
aI501183237
aI48855331
aI2836390701
aI1373783665
aI960415560
aI2867795022
aI25230849
aI1685567635
aI2372466186
aI179683348
aI1447342160
aI81298756
aI24359911
aI323592382
aI2646304429
aI409987437
aI2864448451
aI2823115865
aI72912601
aI384481193
aI2689026576
aI6107392
aI2805741386
aI2784576270
aI2767671962
aI2837856607
aI272882691
aI1339399279
aI2832545739
aI2551930640
aI2434197380
aI2835020170
aI2830226748
aI386159731
aI2850690038
aI1549890307
aI321641832
aI108011068
aI537656811
aI1340051306
aI413912302
aI1290218982
aI2860358497
aI2753987142
aI2868116419
aI196037072
aI2246784923
aI30209504
aI342782604
aI614314311
aI2244048653
aI151292276
aI240436612
aI2831538246
aI1366528333
aI2817605612
aI2449760392
aI2835734064
aI24760051
aI2830451867
aI596417315
aI14164037
aI285761930
aI2867926321
aI2824951447
aI2838300647
aI2863534034
aI2720909682
aI574647893
aI2165316493
aI608339020
aI286762873
aI14211474
aI2833164122
aI66680701
aI212619594
aI110453586
aI2867698262
aI306093579
aI414033648
aI66700166
aI1162880917
aI591034921
aI833643470
aI2829644386
aI2838200295
aI2705142307
aI307264104
aI2838206073
aI50638061
aI1940875795
aI70994714
aI2202096984
aI2815204522
aI561137763
aI852738908
aI747983293
aI290925627
aI2865524354
aI2865530924
aI2865516920
aI2865526952
aI2865521366
aI2865774872
aI2867367264
aI2867405942
aI2867397686
aI2867360832
aI2867391428
aI2867386724
aI277986894
aI155355385
aI2176746844
aI2838136523
aI46371258
aI204655749
aI568379826
aI2835237663
aI85375037
aI351182979
aI63435840
aI2838136455
aI2831117057
aI2803268134
aI452098151
aI1316732196
aI2617598766
aI135848413
aI39351278
aI2678966370
aI831397753
aI2151873538
aI2867241326
aI2838086740
aI76295056
aI439206394
aI2712694505
aI2467384158
aI631886108
aI25743214
aI269536371
aI193357228
aI2479663825
aI467511301
aI255740151
aI1689146826
aI22743546
aI77382247
aI539109939
aI388641891
aI1629842209
aI2714202391
aI264741120
aI2176517166
aI2781358242
aI2866974582
aI198509609
aI2316072630
aI2765315205
aI2447521470
aI2251683126
aI2866885855
aI1309039872
aI226604931
aI221995272
aI2837868528
aI15764909
aI119841636
aI191572495
aI418521906
aI2827203803
aI2605771640
aI15243874
aI25094494
aI154421205
aI84440292
aI1161851388
aI242189252
aI1106518760
aI589211408
aI78847722
aI2504629782
aI470172718
aI1326441948
aI420958340
aI246305528
aI2150737906
aI2636351560
aI485051880
aI350250304
aI2852300756
aI2687137610
aI2719139941
aI2803231651
aI141614167
aI2843037450
aI2408483878
aI732580658
aI529452838
aI2769764364
aI2802910347
aI1502620706
aI817780826
aI212565166
aI1577309438
aI244846712
aI1400470915
aI245709544
aI389948828
aI2475348344
aI2861939617
aI2547901410
aI1617228050
aI458093927
aI2526833102
aI1672969982
aI1122411656
aI65143677
aI254139868
aI2814431989
aI107747768
aI2315224963
aI327170630
aI2466548430
aI15465337
aI297162928
aI2371088222
aI398046754
aI1094733037
aI192919509
aI43314258
aI19520360
aI2297249737
aI2416730198
aI1950148536
aI875883416
aI151470676
aI151535956
aI1121226925
aI19500487
aI2866127784
aI2837783189
aI231642610
aI2806825609
aI53458420
aI1054015644
aI924316466
aI2830590970
aI250329802
aI2803171206
aI75487555
aI614138296
aI2807989994
aI2821684776
aI2833442331
aI40553364
aI78006281
aI2855982889
aI29246961
aI2398384728
aI255439055
aI2835210097
aI2371311576
aI2804825803
aI2719894308
aI2863383710
aI437135012
aI2853395348
aI2696431285
aI2595240295
aI2858457068
aI2533908511
aI480774265
aI19078952
aI2837362671
aI1713173762
aI2804210768
aI226464877
aI1225837854
aI2652201302
aI2825195608
aI205807061
aI1236699666
aI79128328
aI250948267
aI80781468
aI295600961
aI808715664
aI2821304890
aI767957425
aI2505859476
aI333626654
aI850630585
aI244078513
aI376107622
aI1041413047
aI2833702697
aI2837292652
aI207316770
aI2349455889
aI117150055
aI102084767
aI1051662350
aI2841869154
aI163365673
aI2863705442
aI171510807
aI420799733
aI2834088938
aI2506026660
aI364396896
aI1395137113
aI2843804431
aI2806978830
aI2539570392
aI488588722
aI218093929
aI376463133
aI890961427
aI2837178111
aI481305611
aI2786945036
aI499735738
aI1256759389
aI2685177195
aI2740973760
aI2177991890
aI2459453575
aI63532047
aI2805442858
aI38708203
aI2837150867
aI2821433671
aI599267103
aI2301485676
aI1390296632
aI2811336016
aI2829781746
aI2383656487
aI748711640
aI773854742
aI16152287
aI1973681660
aI2466233358
aI122642982
aI1962137774
aI123511307
aI308329921
aI2721147386
aI383750482
aI2835117316
aI2281813838
aI2829993609
aI964461314
aI59368874
aI1894495063
aI232852260
aI1071100729
aI775767278
aI2836903425
aI294915282
aI1967682504
aI2861300202
aI2808346493
aI2827549805
aI2864398795
aI566009167
aI1594095132
aI2836027331
aI2802079946
aI222487786
aI2754333427
aI2649089400
aI962333671
aI2864232476
aI600001107
aI353423835
aI2219325727
aI2475010393
aI413831503
aI2864112642
aI45807261
aI2788093507
aI949332338
aI395441886
aI563847540
aI26201025
aI211746808
aI1942951308
aI238210113
aI1849013203
aI604827670
aI2451678211
aI2863870350
aI862529532
aI2842048975
aI1554006247
aI2852706121
aI2835663057
aI383023239
aI62985465
aI1222976346
aI2169408157
aI2517367107
aI2583198277
aI22919687
aI127963589
aI618950858
aI211718037
aI2366354382
aI2595854078
aI2786261326
aI2863461726
aI2854886450
aI133092148
aI146280107
aI2836189511
aI2836560850
aI2766875882
aI474984915
aI619881373
aI1586816234
aI226537603
aI577238562
aI2836420611
aI2786383377
aI560093146
aI2533801069
aI114400509
aI2250640657
aI105781078
aI2860950283
aI2836358843
aI2863165046
aI2303265361
aI2832657605
aI2824180961
aI2825981194
aI1856419622
aI1949339744
aI397103424
aI18554863
aI2471412865
aI1846137048
aI2563990928
aI594491772
aI548290496
aI984616866
aI2862994357
aI488379230
aI25572212
aI2863039315
aI231660691
aI1968133926
aI1211314513
aI1265791680
aI293840105
aI218031252
aI2862831528
aI2547269516
aI140615871
aI229193430
aI2760064438
aI2860449920
aI2753353289
aI2817276020
aI2200979395
aI2858619884
aI2840998394
aI845755692
aI263533569
aI755380466
aI207372741
aI2859972468
aI2831563106
aI104734647
aI2861619578
aI2695506445
aI2491818721
aI2862514249
aI19275467
aI1273751114
aI800543954
aI143997388
aI2835399041
aI2766107508
aI1636446704
aI1574586211
aI2836005977
aI2836061440
aI438411337
aI2862480067
aI887311476
aI1698196550
aI551627395
aI130522441
aI1029813768
aI2843212297
aI634549057
aI30623240
aI2383267254
aI560334322
aI2861365483
aI2731736429
aI224108526
aI2862105679
aI2862004872
aI14064443
aI391174510
aI274886543
aI2835078355
aI92704113
aI2854688666
aI2791359687
aI547401969
aI135220659
aI2766848565
aI2805034446
aI2861373283
aI1359486133
aI2442356395
aI462834768
aI874631394
aI2844335275
aI2831504249
aI2828573484
aI160697355
aI81734494
aI422260025
aI54358322
aI462995857
aI607698181
aI2775613475
aI1489758090
aI2377837573
aI2724150612
aI766390141
aI588907439
aI14927845
aI2831627692
aI29340667
aI20523279
aI2855422542
aI2515908662
aI2818961666
aI1882585087
aI91891213
aI2824242797
aI2832977950
aI134180865
aI268513039
aI739340280
aI2860251218
aI147215962
aI190891371
aI2830533256
aI2293141316
aI354888750
aI2829822584
aI367779132
aI2776895387
aI385267034
aI518320660
aI2834173020
aI13720992
aI247078794
aI718353372
aI1426587722
aI2835498581
aI233304449
aI2750179442
aI149034948
aI1712402192
aI1413613844
aI2462143928
aI97690196
aI2254993762
aI2776476114
aI101334924
aI327521515
aI398650415
aI2329792518
aI2802848788
aI16882403
aI573958058
aI306462907
aI24602477
aI286540631
aI2860348338
aI317647291
aI1606399224
aI604827204
aI96039712
aI978133136
aI2860880190
aI164291890
aI2282901036
aI630537126
aI1696050452
aI264994640
aI189386371
aI263817173
aI2335512154
aI934982148
aI1059750097
aI2798008630
aI2428749744
aI38134430
aI215300359
aI2223797186
aI148211130
aI259448442
aI2860689024
aI548569496
aI56227662
aI273112077
aI53098798
aI1148443512
aI2860758410
aI2443540044
aI2840366706
aI2773957980
aI35308418
aI2753705905
aI2606716010
aI361931607
aI32887626
aI2803917878
aI2855146243
aI155079054
aI249765832
aI94349511
aI1337019828
aI2848917660
aI2834174519
aI2843871230
aI2282176892
aI109351289
aI2860585970
aI86853394
aI2858271481
aI299817679
aI324211698
aI2280881720
aI2835077427
aI225434721
aI369561516
aI2466342679
aI280497379
aI2833509933
aI2535659326
aI36111600
aI16787705
aI75823215
aI27428751
aI2720892012
aI16248994
aI2535262196
aI95447916
aI2834918320
aI2834072740
aI2458760748
aI2830262236
aI2734735608
aI2190950965
aI337508281
aI2217702427
aI469249442
aI2825675579
aI98564808
aI901505348
aI1664273012
aI2695497780
aI1722681
aI56313474
aI2653220682
aI2557374872
aI2180494121
aI107220656
aI2860169245
aI96430562
aI31695994
aI2496376574
aI2857686572
aI2849728357
aI16928155
aI260290152
aI158756247
aI2834889381
aI2290770894
aI46624791
aI2816908093
aI2853034999
aI2308228813
aI2420697918
aI2775309431
aI297139984
aI36272975
aI2432900042
aI2854113480
aI2817034836
aI7437482
aI822319122
aI1101581046
aI2798577901
aI16944663
aI375466104
aI558536589
aI2566803367
aI244066311
aI1685041796
aI2832286812
aI2722787371
aI402522686
aI2714754915
aI1635179431
aI2749296084
aI2840258720
aI2697402710
aI2855881272
aI2859330493
aI378199565
aI1966638750
aI193938481
aI783070622
aI2856801306
aI38597475
aI499470538
aI42361859
aI2382357054
aI23021042
aI2703587462
aI79452255
aI1722142735
aI2854336633
aI148611080
aI2855058590
aI559814686
aI2202214434
aI2849459316
aI1250850006
aI2728209696
aI762529177
aI2432284600
aI2821478398
aI2806518783
aI2648349911
aI28885815
aI83815465
aI373313208
aI546294572
aI164612276
aI89661685
aI48491802
aI854682757
aI2649301615
aI338343259
aI30041506
aI365809066
aI2833726402
aI2375288959
aI2789098954
aI429228185
aI2785183935
aI2857172257
aI751954616
aI1605885960
aI2321235932
aI2831968563
aI2858455566
aI612151221
aI525776220
aI2850943621
aI498410799
aI2832680044
aI2834099847
aI815028372
aI2416396039
aI1321139442
aI83220642
aI227306464
aI47982908
aI179771051
aI1482343231
aI2199401222
aI527343525
aI2821414599
aI933951553
aI2147562649
aI523205334
aI56845066
aI775123272
aI2726331949
aI763829407
aI60251426
aI2341503534
aI18149667
aI424256710
aI2810630383
aI2858247278
aI2854853394
aI1978418988
aI1431190429
aI2811835145
aI2720049530
aI2759159402
aI2473666566
aI1057788428
aI170030715
aI2829554667
aI210916732
aI2815214727
aI2189613277
aI2156594012
aI18382318
aI69915346
aI424974110
aI2571188485
aI2774543232
aI1242901464
aI14961220
aI69330581
aI59777243
aI1847465234
aI609090478
aI1089267390
aI1575220530
aI2172304020
aI253809337
aI2790275389
aI144888395
aI392509864
aI1618902751
aI2216412208
aI2857920168
aI299019144
aI226044210
aI27395526
aI259183476
aI543440156
aI2829391857
aI38501773
aI102742823
aI2278929762
aI2850435925
aI2829369352
aI512294829
aI2450882486
aI511651281
aI96104283
aI2690720982
aI245417832
aI1274276162
aI1556184704
aI109515852
aI2834062749
aI2852565350
aI44145813
aI1854419304
aI2574501734
aI2258558934
aI76863417
aI108102819
aI431105705
aI2291301377
aI325730490
aI2858054202
aI2266151226
aI165024037
aI2834039727
aI581685080
aI1422649704
aI2384893182
aI254097355
aI49444249
aI2857977336
aI43714011
aI1606226130
aI101600123
aI2574419996
aI277183759
aI467216124
aI2215352989
aI99535544
aI2497716658
aI145140960
aI2793102009
aI58448533
aI2826233856
aI872675798
aI183632728
aI2833887573
aI501368505
aI101503685
aI2578334564
aI2766969422
aI1870665014
aI2636406840
aI2443748696
aI2418356247
aI2572628473
aI2532451780
aI2500305644
aI150355562
aI117374633
aI1384188500
aI2209081464
aI2833480522
aI2856406867
aI2728691060
aI549083983
aI2810498103
aI1697121632
aI2568531255
aI2833734274
aI2855308332
aI873420631
aI2155501928
aI2404839600
aI237139678
aI310435889
aI61188935
aI2829605665
aI46399435
aI1395144332
aI271088186
aI2833620729
aI91994381
aI2275887840
aI849980887
aI1368563334
aI205177495
aI2717140547
aI2857684248
aI276552777
aI1961963322
aI2751623119
aI1253535788
aI46334690
aI2842255478
aI1468164326
aI452811924
aI2833412290
aI2856458497
aI2369877794
aI731066372
aI2349078979
aI200819716
aI86006641
aI2719197067
aI1420200283
aI153191518
aI187664024
aI2785402169
aI422417511
aI2832339993
aI2840869951
aI322477402
aI2819832687
aI2829798803
aI2739566285
aI220830090
aI2333646678
aI2611040684
aI592388957
aI214922759
aI260997985
aI2257199641
aI2203482468
aI272090746
aI1836194156
aI2833126936
aI1526245866
aI2851013660
aI2825144382
aI165158638
aI1380733466
aI2535655770
aI2806843434
aI2836462338
aI2533664431
aI739955652
aI258990051
aI556101330
aI477542302
aI104458449
aI52365709
aI780803700
aI78469916
aI2754537411
aI90383665
aI176935991
aI1079480029
aI2773963941
aI2851730942
aI2728847492
aI1707620845
aI2442748873
aI338764242
aI706280935
aI17402867
aI2335390298
aI301741043
aI719464187
aI35754621
aI2857174448
aI627685121
aI1543784234
aI359492696
aI85273248
aI32679006
aI33941753
aI1533923312
aI23490023
aI2831535119
aI2822968075
aI2771688593
aI283201061
aI14702706
aI21287707
aI2832676029
aI2832725428
aI2806278010
aI2821224033
aI2657300997
aI2801591609
aI130248105
aI40966129
aI2275908531
aI326972491
aI126000687
aI2846589583
aI2832559469
aI348544728
aI2829422061
aI200909245
aI265262694
aI21135329
aI1733568162
aI399344254
aI2762819889
aI2819876787
aI2371753373
aI285574073
aI333855507
aI391714146
aI508576552
aI24175175
aI17518751
aI19664746
aI38155470
aI856044643
aI2786223498
aI102930489
aI1366124461
aI751220874
aI162300878
aI1432178754
aI2669847858
aI1117698414
aI2828612366
aI753496896
aI2523049357
aI2768793939
aI228843105
aI2855103984
aI218084844
aI72433113
aI324038356
aI393855832
aI36324708
aI636209324
aI2427366392
aI2832089146
aI2832069897
aI198929715
aI1553015106
aI24610879
aI14336819
aI39113470
aI602234410
aI203003270
aI2237230019
aI2610107275
aI2358236453
aI80795692
aI2197953840
aI533154088
aI2730110911
aI2651474046
aI34632831
aI2168724656
aI2466380976
aI2820110278
aI2856889147
aI2810198749
aI2848833138
aI2400375558
aI2856854275
aI2855729256
aI454630203
aI1433558611
aI198191807
aI455308544
aI2455424124
aI359225425
aI2811100216
aI459784629
aI2827088296
aI2295154363
aI541471359
aI2403093630
aI316028349
aI970097222
aI576425775
aI28426214
aI193034381
aI17656889
aI157568858
aI443802437
aI2607207792
aI371928585
aI2190574733
aI2789540523
aI2232823967
aI2828140351
aI605296340
aI6063202
aI182531438
aI921054242
aI2801803365
aI2831570224
aI2856386695
aI2846537634
aI2827346273
aI2693327088
aI21574319
aI2793963566
aI2274667261
aI126312804
aI2654654784
aI2370470041
aI384326715
aI798141158
aI1259546587
aI793300488
aI1560173774
aI1664682151
aI80272075
aI2344967383
aI2258742283
aI1321827001
aI2831490005
aI2828005295
aI1674434149
aI793866637
aI2384987162
aI768110844
aI1436648053
aI1632800904
aI2390941658
aI2810573009
aI2809975089
aI1459683397
aI248598651
aI2205428778
aI1136695514
aI7506192
aI16804920
aI127704845
aI975382549
aI2320619845
aI2447755364
aI2496331452
aI166906449
aI2590944210
aI430555891
aI2458741134
aI2512433156
aI250714683
aI2250471510
aI2854144717
aI2389773750
aI2831288555
aI91486929
aI553425370
aI2783582414
aI2776560998
aI334651001
aI15027790
aI1258555952
aI2831220117
aI1282834070
aI266483916
aI369605948
aI305585940
aI2522028781
aI793499334
aI1346937546
aI2286328351
aI2831188701
aI1906934864
aI880435459
aI2855187302
aI2386966118
aI403250562
aI25577088
aI390287890
aI2563179782
aI2784019246
aI2564953685
aI221899710
aI385486616
aI2601085873
aI2830071534
aI29768151
aI2797481375
aI2437792843
aI2606323617
aI309608434
aI259846200
aI2585090582
aI2856348877
aI2856374089
aI2831073837
aI128609758
aI2831582216
aI2755655060
aI2592288942
aI825975320
aI2261771454
aI2821096722
aI2831032449
aI15927166
aI2854960868
aI17385572
aI2856211897
aI1173836761
aI1016910492
aI142506538
aI959843701
aI2395746798
aI2830963073
aI49363851
aI2843280858
aI2773998095
aI190169164
aI2856213253
aI2657967024
aI2547491395
aI2851779344
aI2573645756
aI2842162526
aI2420014441
aI38166067
aI149124324
aI514178755
aI334951725
aI2465491478
aI778122204
aI2830768557
aI1415862553
aI418620627
aI2856148219
aI60319694
aI84539251
aI288403511
aI2796907033
aI187390241
aI2262960991
aI215265051
aI85565992
aI288251278
aI823702081
aI2830647377
aI1456926907
aI292078013
aI384013191
aI2444528227
aI2789687745
aI121376423
aI2830594096
aI452212835
aI988442930
aI69586948
aI92932166
aI2826141848
aI20178240
aI1935935263
aI202774666
aI123379603
aI2277949424
aI284753069
aI327660099
aI2838056094
aI2459873574
aI124804241
aI446314504
aI544318348
aI580292212
aI2827432991
aI2830426990
aI5490392
aI58687344
aI2773719788
aI118656306
aI2828676349
aI2575050361
aI2855926694
aI580241499
aI80922479
aI2825293492
aI108683240
aI126010524
aI402313159
aI2830179441
aI167169119
aI1010545548
aI2809702222
aI2346592355
aI2830162234
aI2828496504
aI149064159
aI2851745724
aI2829823318
aI35192057
aI2562218686
aI2829765173
aI1040253164
aI50644103
aI2150534019
aI2401754454
aI64737751
aI2458750665
aI2797194138
aI2279834869
aI1077081312
aI2665578920
aI266808868
aI245888086
aI106800458
aI41127870
aI179555618
aI2829941795
aI273555402
aI2855800699
aI166511695
aI105172827
aI49749552
aI101339779
aI2432440496
aI458048696
aI336317777
aI109473413
aI2829866009
aI2532482608
aI2263126704
aI60719577
aI2441351335
aI2229548468
aI2829121527
aI76718532
aI252171973
aI314551550
aI1939275186
aI2756583241
aI2828991039
aI2175191611
aI2173051639
aI2813364014
aI1127625001
aI2735144779
aI185296612
aI2829732442
aI2818841931
aI1101263467
aI338251437
aI2574958488
aI2370874614
aI56496489
aI2835612025
aI48505827
aI187463530
aI2817183848
aI2803493331
aI293505084
aI2615877661
aI1619703458
aI2831411876
aI1903513380
aI468612200
aI1172158195
aI2855651065
aI1244108713
aI65957734
aI1857358873
aI1341469058
aI2782728097
aI2787008590
aI2659383456
aI359997981
aI53674144
aI1512792553
aI2823681479
aI39218245
aI152256100
aI143424100
aI2829494152
aI335313910
aI2299847011
aI614272138
aI1966520190
aI318234144
aI972032286
aI2829400505
aI306198197
aI584811421
aI636813238
aI507111288
aI2853401306
aI2444311688
aI270891918
aI2855416794
aI850931227
aI2718941450
aI535903911
aI2828889621
aI21165890
aI2829328097
aI421349526
aI1031781396
aI1099231471
aI318583570
aI2604756709
aI2850009620
aI2855322876
aI92837303
aI1484681587
aI2824298982
aI2855407214
aI127644493
aI217366517
aI1229439397
aI2855428921
aI55844322
aI2855313342
aI1316883186
aI2798101421
aI2330514805
aI2678903779
aI284706678
aI19965123
aI157001490
aI1598584454
aI439889051
aI987788886
aI2801594899
aI1215779467
aI787035510
aI2814920126
aI1606002019
aI159687728
aI2294103345
aI1165312255
aI581645337
aI2592489277
aI2855282462
aI2852306502
aI73175139
aI591112923
aI2291186622
aI18116311
aI2819604519
aI1735716558
aI2498182790
aI2802546747
aI999042031
aI2795528197
aI2170292898
aI14091355
aI2854054939
aI385461984
aI949980337
aI2829015377
aI2828965287
aI632690943
aI2852823272
aI337124947
aI226707697
aI7277852
aI349663100
aI425097461
aI101309588
aI27825384
aI2828805446
aI334373072
aI2500318232
aI544614469
aI2828363343
aI2832879984
aI148053061
aI48739151
aI1216145432
aI2838768253
aI2332938986
aI420740111
aI2825859047
aI346569732
aI89116495
aI2388123450
aI166584247
aI2447155990
aI2854993808
aI256280815
aI132904435
aI1179447678
aI15783601
aI106748611
aI181697401
aI278227226
aI2673618859
aI2828600961
aI20486443
aI2814402741
aI2653187504
aI2828623936
aI2401291662
aI159568061
aI16584862
aI2852658720
aI150428422
aI56451040
aI2687465978
aI2541831725
aI141103843
aI2467998665
aI43382002
aI2767845071
aI195325951
aI1412241468
aI2810215913
aI2553380839
aI2320773038
aI229867942
aI175477593
aI240437609
aI2502345210
aI2760662039
aI16059403
aI2770106018
aI1186228680
aI99344557
aI569711051
aI2828191876
aI569353492
aI2782670804
aI273230666
aI2828064711
aI2828141847
aI2698813411
aI2854706557
aI1425744589
aI2562195960
aI2816644119
aI2600642412
aI1106763000
aI51078767
aI2828026193
aI2822207123
aI2444040757
aI149750194
aI2811476726
aI56517908
aI2512434381
aI998759197
aI57431225
aI2778142106
aI2852778954
aI2835147204
aI2853447450
aI1058863386
aI2835437035
aI16998220
aI2778605550
aI94720462
aI88973781
aI2364600103
aI2852856571
aI734818022
aI16377944
aI73068569
aI307574911
aI343572211
aI120210232
aI53330859
aI96118767
aI766782829
aI110411255
aI2731229719
aI87361720
aI279233486
aI395598958
aI554172827
aI1901532684
aI68446099
aI2821391140
aI31003701
aI304919816
aI79797217
aI2827578484
aI1551184418
aI2819725079
aI2573119465
aI439960442
aI2720839127
aI200590362
aI99280962
aI306287712
aI136826198
aI74648173
aI2843213832
aI1557268326
aI2475615444
aI1101432775
aI2854465273
aI1967974406
aI2773526276
aI2315373804
aI2261040935
aI384140557
aI2750770270
aI2809789133
aI2854427539
aI25044614
aI292947102
aI538661322
aI133064475
aI361534159
aI1344284780
aI211468677
aI1622001350
aI2274330240
aI2827302209
aI573337104
aI2705855544
aI2766531936
aI1470227442
aI15265393
aI1288675326
aI765611791
aI2849743862
aI1220930148
aI2814915817
aI2824866417
aI2798236183
aI1693702387
aI16142201
aI517801153
aI1286608340
aI2607926840
aI2827281730
aI391200203
aI2278080216
aI2723790108
aI313663018
aI778208462
aI2854004900
aI2827195355
aI2235023414
aI2812667350
aI206765326
aI2263698162
aI2823537722
aI575469827
aI2846921318
aI72491466
aI197421512
aI2823320891
aI116130193
aI2158127231
aI2795228295
aI704929388
aI2396153328
aI259083418
aI158497200
aI390914563
aI2570184927
aI2388742904
aI474403439
aI141462778
aI2846682133
aI2148662454
aI235131592
aI2571731892
aI2564512279
aI454538043
aI2451002960
aI2853982082
aI2853921648
aI1524095197
aI1515446660
aI2821146856
aI739344326
aI516511823
aI57799915
aI435376143
aI2540610564
aI2533942351
aI60297178
aI2658921385
aI2438475968
aI2734529168
aI2853830928
aI2529802452
aI2299322520
aI2306183401
aI754663075
aI268923375
aI294991066
aI9650472
aI2838841668
aI2826754306
aI2853714992
aI2697439368
aI157808584
aI56185521
aI18342919
aI2391663758
aI6363492
aI2341357177
aI2792293463
aI391945175
aI2309504472
aI2853349404
aI1188237912
aI1169357238
aI110595068
aI17139048
aI2826442797
aI341095106
aI1361909906
aI967072033
aI518611184
aI20648162
aI1336694480
aI363277455
aI225185575
aI2825655460
aI2296885381
aI26262815
aI732142164
aI2774714411
aI993144956
aI43621467
aI2677162305
aI2803990753
aI1266104503
aI29680848
aI2824584911
aI406139334
aI18009831
aI2696525264
aI35098104
aI535445429
aI2639241828
aI29305531
aI1338424860
aI2816120296
aI98351233
aI633136915
aI59228469
aI2825838989
aI623974333
aI121119269
aI2577023196
aI773595870
aI2852851418
aI2789430455
aI138354364
aI84004001
aI407644845
aI540291257
aI284667331
aI2779108326
aI2821124819
aI2154259958
aI2419470638
aI2853364866
aI41136830
aI282320425
aI232688685
aI2780755832
aI89447984
aI2583495661
aI297631740
aI2825352292
aI955788313
aI1421661464
aI574829169
aI282503144
aI2819734162
aI577661979
aI2820641337
aI862769120
aI80391550
aI2853377077
aI45414095
aI47287377
aI1685449044
aI335535161
aI2367353389
aI925555028
aI22621759
aI208364766
aI2816500946
aI113241785
aI2830096051
aI498954033
aI2729298019
aI2506575176
aI2252306486
aI283806383
aI2814341341
aI2824994415
aI2853282151
aI2786062654
aI13715152
aI572482112
aI53601961
aI60030004
aI430935661
aI2825079251
aI301930822
aI155320184
aI47065450
aI553256969
aI1958650620
aI2851874238
aI2243042306
aI741544718
aI2445937212
aI2853115124
aI2834789078
aI181984199
aI378735711
aI48961606
aI2823157081
aI2522427812
aI2829916364
aI562394882
aI2714568014
aI2853044233
aI1493631506
aI467230523
aI1656394142
aI2365648592
aI17422757
aI594349111
aI177428945
aI77782672
aI215588040
aI2852931752
aI2819648213
aI866229434
aI135064134
aI520234049
aI2850002834
aI2823956109
aI505563137
aI2271433159
aI1094705286
aI841657136
aI1009560728
aI580785846
aI2599806138
aI2328660228
aI2581948470
aI2746185767
aI342719398
aI2683572974
aI2312615220
aI597014926
aI2852863771
aI1913778978
aI2311411861
aI944637618
aI2841892410
aI99497634
aI92823910
aI545311420
aI2851706701
aI2831930118
aI241168445
aI2833615651
aI470696802
aI439688000
aI2659454311
aI2606782068
aI2852516820
aI238627178
aI254414492
aI48026896
aI31641178
aI289803990
aI81372575
aI2710842770
aI2814586085
aI79342585
aI8956042
aI92730471
aI2823983099
aI71108673
aI45722157
aI1539149293
aI723100472
aI60272752
aI94216035
aI2816733574
aI2850968017
aI2366485923
aI2852346396
aI195604783
aI112131530
aI2664409276
aI2736524496
aI2666698434
aI1567784820
aI2851605036
aI398011083
aI2851658402
aI339468213
aI1027927495
aI173901703
aI910625569
aI492951222
aI2823533363
aI226112627
aI2702071452
aI60964525
aI2696362436
aI78437440
aI287633285
aI387952174
aI2700328626
aI570727585
aI2849958872
aI2812092769
aI2774168932
aI2172454970
aI2741313062
aI2809953756
aI2745521823
aI2820436241
aI812495492
aI929824010
aI2696201796
aI2823260159
aI2851591435
aI2852127283
aI549397263
aI2823160109
aI2823122991
aI58180350
aI752950332
aI2423623843
aI2851358208
aI2811482369
aI2242024296
aI2375160782
aI35978811
aI2696030522
aI2823022354
aI276396036
aI20907983
aI2817736839
aI2820313891
aI28661384
aI2848310288
aI2656059240
aI2763600297
aI2822919675
aI100827317
aI704823113
aI56666864
aI2842408320
aI2822943839
aI2844930882
aI2839595322
aI2805608534
aI156278823
aI1171132706
aI307148675
aI2852077081
aI1654715580
aI523075408
aI91066976
aI1149528150
aI493810804
aI2852039233
aI2789170942
aI2169819307
aI59374303
aI2698243987
aI67559319
aI2817775251
aI1734672757
aI181881359
aI36091489
aI145831958
aI472320178
aI2315078887
aI176414188
aI2816469658
aI2720909429
aI1909570940
aI2300433295
aI2765743148
aI2851781611
aI2476757924
aI1003568106
aI2358472418
aI2834608794
aI307360094
aI432347826
aI2830106971
aI2716783417
aI550166431
aI2760654927
aI491434984
aI2847498542
aI545826384
aI876650948
aI2851259736
aI141893933
aI321354126
aI161228608
aI2721909617
aI149475654
aI2173854138
aI1444384820
aI1154660576
aI162317442
aI2340522938
aI263525422
aI2849487744
aI1536273402
aI568780354
aI1327209217
aI2849444984
aI2840458081
aI36294352
aI2807585875
aI2820205785
aI2709747721
aI592532166
aI1001560104
aI32436206
aI186821920
aI19431772
aI932096454
aI2849443573
aI716590457
aI2844397494
aI2776944381
aI378643979
aI518327671
aI932929868
aI2208170335
aI2815120785
aI134227994
aI22326968
aI2154811358
aI2850458310
aI10436912
aI418116303
aI2781024982
aI332011572
aI555333923
aI2851188828
aI2787677816
aI108497254
aI86595416
aI48661611
aI2530880550
aI216185041
aI2732966250
aI484655256
aI2388922012
aI1352763096
aI517504593
aI1482201595
aI135767670
aI2851045238
aI135449864
aI167758127
aI2724509480
aI2539049171
aI2342244116
aI2562124798
aI2460351829
aI2830468920
aI2669232486
aI2764914080
aI91309567
aI757243280
aI44560167
aI2659986913
aI109022404
aI1495879981
aI595374597
aI96785617
aI562731699
aI2711498154
aI2343329259
aI1615581030
aI2850302113
aI213005260
aI117595152
aI2498775859
aI384708299
aI343669749
aI199175807
aI2281406046
aI2821318072
aI366728770
aI2186678436
aI2233714520
aI198515050
aI2829821730
aI2773037548
aI1924529545
aI171487619
aI2573289175
aI70414679
aI91281316
aI2836894957
aI767250620
aI2848672615
aI2850393360
aI18823400
aI498737118
aI1278805610
aI2717170182
aI2825889109
aI1594745250
aI104876334
aI1482495738
aI2821235507
aI2379095485
aI1534315975
aI2830266888
aI2847519836
aI22685716
aI2726989129
aI30702783
aI294062829
aI2283016859
aI147171873
aI574544149
aI2792080242
aI2457799262
aI432102498
aI2608829855
aI159133519
aI1507063488
aI17907899
aI2517991963
aI2494727618
aI183092165
aI1964561786
aI278204858
aI440917996
aI307765997
aI1966307676
aI2527402352
aI2821198175
aI2439483567
aI128521786
aI27501251
aI2516628411
aI367873966
aI606066169
aI341074020
aI2527341126
aI2790041578
aI127100576
aI382615813
aI348792066
aI414974569
aI2818042010
aI2364151537
aI97182920
aI18556747
aI2849950716
aI708830835
aI45140528
aI128470375
aI2837772486
aI451338146
aI269983528
aI2328491023
aI2795874901
aI534103822
aI2154122631
aI2791667097
aI2498284406
aI55434903
aI935439043
aI2570957641
aI1725397484
aI288120277
aI2815132876
aI259378590
aI429728315
aI2397632988
aI2275492093
aI2401820551
aI2522828221
aI2671621687
aI231053668
aI2689594526
aI1239844340
aI757217208
aI2821128659
aI497976372
aI2743816379
aI2849899201
aI250507593
aI1153820738
aI1193907188
aI783506461
aI2229771186
aI68355489
aI2476567280
aI2706583550
aI1855148694
aI236437826
aI276473680
aI2849776814
aI1562612738
aI2504681947
aI2561569115
aI2845957728
aI2538968749
aI2739832717
aI19003482
aI290699621
aI83475406
aI42046412
aI2760963501
aI128806885
aI227787214
aI1308585667
aI353882091
aI167484879
aI118050777
aI38944658
aI268861973
aI1898210922
aI2784959794
aI16539842
aI2838427992
aI147438477
aI2820084017
aI193915966
aI91004743
aI313610330
aI136355051
aI50226127
aI2497927256
aI633181951
aI2207593776
aI131223161
aI90450379
aI20275189
aI2801614001
aI2337100950
aI1959166434
aI2148094898
aI1653001566
aI2718634201
aI2817977351
aI2786324393
aI2820162291
aI423924297
aI1406019290
aI626232309
aI45200842
aI2611569302
aI104543657
aI418872106
aI1541498112
aI2844538470
aI192354085
aI2342508519
aI1173410624
aI348356780
aI2750589523
aI2820625475
aI270533959
aI2798975021
aI2313715712
aI18018512
aI23631381
aI2726013967
aI228170620
aI553903636
aI2809122208
aI2802021353
aI20809953
aI2818735186
aI2820543832
aI2820439144
aI141059929
aI258718370
aI2312346715
aI2820529469
aI75304165
aI26262294
aI469768864
aI2816984391
aI1144142772
aI2820489101
aI2416726849
aI38183468
aI2759426957
aI38708573
aI2816720201
aI3337441
aI97284957
aI299146305
aI2517075808
aI98935427
aI2730240780
aI162849751
aI914248141
aI452575096
aI49569895
aI104272768
aI2820061403
aI2848694438
aI2847582162
aI970939418
aI2820222839
aI194429978
aI478638131
aI2673366208
aI808847995
aI2614107986
aI2591415338
aI35402085
aI255749782
aI191465225
aI2849136889
aI2609590663
aI364681518
aI2820046877
aI301648228
aI358780567
aI2281132795
aI147545560
aI1697247835
aI2827495394
aI33479536
aI598908978
aI15430182
aI2812404423
aI17863010
aI2256283778
aI2846494526
aI1941429354
aI68138160
aI2819844231
aI164235987
aI528527884
aI2845689595
aI2657259939
aI2841039158
aI887115180
aI1258966190
aI73487666
aI588098671
aI35335733
aI2233279429
aI2848968606
aI2848990718
aI2819809313
aI2844896886
aI14359602
aI24811381
aI2813369191
aI138723622
aI111874754
aI2787873924
aI2589778813
aI2848920084
aI2575815344
aI2834557057
aI372912089
aI2548253443
aI2848890992
aI88353956
aI2848858452
aI502326690
aI47638899
aI91151535
aI2839196521
aI2478354158
aI193241480
aI17705183
aI396208302
aI618639445
aI2801783261
aI2299347775
aI221767988
aI275757944
aI362514368
aI58296059
aI2813371138
aI449209064
aI2186624489
aI30510598
aI2783066957
aI2803961239
aI872625048
aI2737006695
aI1316825995
aI2413459396
aI22263831
aI2843695796
aI2611580893
aI2674487072
aI2827436256
aI2819451094
aI330635714
aI2791494490
aI250071252
aI2848785931
aI59420252
aI2847153450
aI2350303769
aI207534504
aI115255099
aI2815090165
aI356917101
aI548675182
aI707943458
aI2252531442
aI2848775311
aI191447247
aI41020201
aI2692711272
aI2813029918
aI2809353977
aI2806658182
aI26986447
aI2804738054
aI2819039931
aI20066612
aI73481581
aI2848566234
aI163271796
aI2605197139
aI1565242686
aI2510302532
aI2848567616
aI20508776
aI2400688113
aI2509350588
aI2848515474
aI168595765
aI309081543
aI95891684
aI14273850
aI85767752
aI449181344
aI353494620
aI455037920
aI64367142
aI392404183
aI2825796385
aI2810529213
aI2283048853
aI635699545
aI2397283440
aI166163562
aI31512336
aI277871465
aI598409143
aI448026522
aI2836262364
aI462972902
aI45770660
aI245730457
aI575091263
aI206474608
aI2539179041
aI238532473
aI2815238795
aI2275916606
aI434200605
aI2317404212
aI2793774113
aI708513848
aI2797239665
aI774997861
aI57837758
aI2682706970
aI842250594
aI2801729859
aI295870238
aI2573997704
aI291345388
aI2301992192
aI12544982
aI2697916610
aI2456617640
aI16205403
aI2810153476
aI830517175
aI2843721260
aI451343097
aI87749657
aI21930875
aI105969175
aI269335456
aI440638713
aI619114491
aI1337058847
aI2396774492
aI70191038
aI161750502
aI200726707
aI347241347
aI2848138759
aI38388560
aI2817403699
aI31346151
aI353107746
aI158487156
aI44281132
aI82693272
aI2764447426
aI2817701537
aI1266877754
aI1134274836
aI2461013299
aI2817547391
aI2555488904
aI288713980
aI1514254784
aI2600416344
aI46770249
aI552798593
aI2817392829
aI270297304
aI230854120
aI1491414018
aI2784062732
aI2845289342
aI2847953090
aI2326455867
aI65945754
aI96349040
aI2571480810
aI177584941
aI16980135
aI212751384
aI2789994538
aI757749289
aI2813252354
aI2847935833
aI490586181
aI2435802216
aI2796579683
aI2535504200
aI2668671076
aI2758632099
aI62050047
aI713093801
aI19380690
aI2787089572
aI2247467366
aI393580107
aI2816724017
aI580402815
aI2830107590
aI157260763
aI15648584
aI626712301
aI2846922973
aI479720447
aI531733148
aI355129300
aI2816511579
aI187931834
aI1650482642
aI44099628
aI2789643246
aI352323324
aI48251043
aI52704121
aI21195665
aI400598170
aI594690154
aI56302435
aI2501368543
aI2742820008
aI86209263
aI2816388275
aI113588016
aI475738736
aI1601313578
aI14415948
aI2646170134
aI246349368
aI2816115375
aI2156005979
aI107764562
aI1186501765
aI2816141736
aI57392406
aI2279207773
aI2795068451
aI109318493
aI19468973
aI440887243
aI937213352
aI453456713
aI2841647634
aI2279678993
aI178938363
aI2847694478
aI87470727
aI15206003
aI2810981561
aI158354709
aI218239148
aI33427122
aI2556381596
aI224199828
aI389582411
aI65002676
aI95520572
aI2513076756
aI2847627498
aI66649998
aI326327391
aI2815862477
aI2847561853
aI133784116
aI448324141
aI1241684652
aI2847576564
aI2386325856
aI389911750
aI1725565880
aI60937345
aI2815710747
aI2847600840
aI11148502
aI410651676
aI2758010120
aI2814438539
aI2279116332
aI293108774
aI2797528079
aI236688985
aI154296734
aI2788093492
aI629000958
aI503195978
aI2784561283
aI2803068027
aI2433718086
aI1277140255
aI327287110
aI2811127023
aI2814549359
aI23086182
aI519498889
aI532024198
aI2428659617
aI293571851
aI2270800890
aI557584946
aI2817169272
aI360664580
aI2785286385
aI2815626178
aI1193097656
aI15316794
aI249788925
aI1044416612
aI203661660
aI348454866
aI2815467843
aI522710990
aI2741941014
aI210541935
aI105984261
aI825104712
aI42397806
aI1672618945
aI2814665795
aI278835126
aI2352414635
aI329665664
aI580722019
aI15433049
aI2828101074
aI322439960
aI2785787367
aI525688633
aI2315548824
aI54351872
aI310160447
aI1249807652
aI2359580791
aI476628137
aI8686552
aI2825680861
aI2494025425
aI2815354613
aI2677390249
aI218828933
aI14896561
aI16525505
aI12153682
aI2813886784
aI1923046902
aI480237341
aI2789734831
aI166426489
aI974925636
aI98533877
aI1665493302
aI2814913481
aI394382282
aI133314767
aI20609319
aI26594980
aI1471838000
aI2847234750
aI765237757
aI386392858
aI221778317
aI1484105040
aI37213091
aI452242554
aI155152263
aI1366634750
aI257595012
aI1696318063
aI2847187866
aI59113890
aI1070177462
aI93658583
aI2847020124
aI2783139902
aI2656532892
aI2825674206
aI144597717
aI15890153
aI2590879802
aI2815002189
aI154082176
aI2316238180
aI341205193
aI1315018363
aI2843238894
aI114757705
aI2703941804
aI268903262
aI1104545856
aI426377420
aI843002594
aI2847018097
aI1376912022
aI75065122
aI1090034125
aI179469467
aI1705842409
aI119165658
aI103849000
aI598509872
aI2374840688
aI2846801839
aI2462648642
aI14395111
aI264228810
aI383003580
aI447795840
aI2380890516
aI984419436
aI308374696
aI2831373930
aI2547494870
aI2790351781
aI2721906402
aI1631962334
aI2160723488
aI193044694
aI2583914941
aI2470616604
aI109388824
aI333767304
aI2833993651
aI855374142
aI142117034
aI2590708626
aI258014146
aI1462657554
aI913100694
aI125886062
aI2799878797
aI2842496815
aI2403230415
aI463404650
aI248432885
aI1894966028
aI2521062686
aI15244373
aI2846043986
aI1660642226
aI918417398
aI2844122570
aI865770673
aI25634497
aI1626779911
aI112437385
aI422511400
aI2846084863
aI73547714
aI2837567504
aI1239526560
aI14919455
aI106780474
aI47447713
aI2560821059
aI362915483
aI212994625
aI2695146439
aI30538427
aI25209451
aI2823015222
aI2555357112
aI12580602
aI729515528
aI93188252
aI1596735552
aI8395912
aI2814408255
aI2556296268
aI2718558788
aI1126975716
aI30807315
aI353543135
aI1723945393
aI91433282
aI2349877572
aI226127219
aI22858735
aI65985512
aI33362598
aI322075508
aI337546009
aI1569628117
aI2761963139
aI451043461
aI322008373
aI2837509772
aI54713711
aI265168093
aI144467192
aI103878288
aI76722158
aI271096546
aI2265160821
aI21377448
aI2438819370
aI1717258532
aI18833679
aI2478186800
aI25215417
aI2845104541
aI314016393
aI19130693
aI2282305884
aI15889456
aI769271946
aI18820876
aI1695401
aI2798546241
aI2416160118
aI48314564
aI1158919484
aI1901755892
aI802752702
aI438656984
aI263568930
aI1264311793
aI2844863792
aI2801524515
aI32999012
aI128749496
aI86533395
aI181150033
aI108253944
aI2844070628
aI18816014
aI188102608
aI398013532
aI2844588300
aI95508780
aI728893392
aI493117417
aI115289783
aI2788810952
aI1372884278
aI238760734
aI2751538536
aI833894371
aI2308020643
aI2283474630
aI1621473386
aI2764530146
aI2836012946
aI2427147888
aI2322122610
aI2844093362
aI565577602
aI707148865
aI125940089
aI2579421735
aI72876812
aI17711629
aI397523053
aI2380281536
aI2259064231
aI2785079381
aI465934000
aI2525681783
aI2800024586
aI46124171
aI2836944656
aI1432377996
aI82534401
aI2527429148
aI41751346
aI1136679146
aI242205051
aI2588980077
aI320861694
aI2814479349
aI635548291
aI202681964
aI876357200
aI122890561
aI2217984895
aI1047087248
aI109600272
aI143593657
aI2814326381
aI2843716262
aI2337645625
aI19103718
aI758519270
aI2603609784
aI2843727565
aI278240392
aI1358101916
aI96544077
aI260339614
aI2843655122
aI380564436
aI2726948674
aI1636909501
aI349502107
aI226254725
aI472886939
aI17587115
aI2281580696
aI2843611820
aI78390940
aI400709257
aI2693857566
aI476423147
aI814415341
aI618249770
aI2451235098
aI183912876
aI1112355582
aI2831244103
aI119366477
aI2801894740
aI2835192979
aI2813771482
aI2372492647
aI2843526644
aI3224441
aI2604854732
aI103028039
aI2841268502
aI1221436903
aI637261082
aI1216528207
aI1946574684
aI2558736482
aI1275675774
aI2813492663
aI2789973886
aI1007498916
aI1269887995
aI358712319
aI636392320
aI2813328844
aI313385734
aI2813010011
aI2795171836
aI150655112
aI22927804
aI2813334154
aI501735693
aI2360909780
aI2527432797
aI74083612
aI315702131
aI2813173437
aI2325282486
aI483164823
aI2839953498
aI939762626
aI615907802
aI2843233676
aI2792149927
aI1113990098
aI2659588556
aI44802032
aI2843139092
aI322536590
aI137355614
aI2780558476
aI215965496
aI82541664
aI2475194689
aI137356128
aI2826126698
aI2781285433
aI555203745
aI2843032346
aI546375553
aI2596687595
aI2842955748
aI1961421018
aI20221819
aI2433274400
aI313248658
aI2842966423
aI1891070827
aI354943011
aI1260297836
aI2812298037
aI290206013
aI2750625847
aI242568317
aI1414426903
aI622738513
aI2839706725
aI2824096808
aI2390567418
aI1519399214
aI197074808
aI266980839
aI2811928038
aI915870146
aI1627298804
aI1963936482
aI2811510531
aI916964246
aI2786781180
aI2811787839
aI206751059
aI29459068
aI2734617189
aI519900133
aI2548117332
aI265679882
aI587531532
aI842499073
aI19046446
aI1861468506
aI2746548680
aI20571880
aI2789951470
aI185188927
aI2799313653
aI418247500
aI516640860
aI2811459682
aI60329743
aI2538701120
aI34274719
aI2837307444
aI2811306513
aI235614066
aI1030977829
aI1735147225
aI92860923
aI930623352
aI2565342408
aI1627898929
aI162679058
aI69364312
aI107369968
aI177118912
aI2830230594
aI2837481325
aI2842609795
aI1964928762
aI1903157226
aI2286192505
aI2442522368
aI2789084243
aI189723967
aI781135844
aI2194855067
aI439253194
aI2372155609
aI47706928
aI1028110465
aI2810223081
aI192700028
aI267215574
aI145566333
aI16187639
aI36038109
aI2842465698
aI2793891166
aI132473172
aI2342510517
aI323130114
aI49506487
aI19062187
aI2842518607
aI552845185
aI100231533
aI1560925639
aI209212766
aI6370682
aI51428039
aI65293011
aI125959858
aI54094719
aI2558238458
aI2810475911
aI52320674
aI284328250
aI2174029807
aI303746844
aI18349158
aI2390139076
aI318402157
aI2798037949
aI2755048530
aI2832066067
aI2523332478
aI754340486
aI392534102
aI83970227
aI2775998925
aI2151454524
aI111140909
aI594093480
aI2475553988
aI265976917
aI376028511
aI2792319734
aI833615810
aI130551587
aI2842351388
aI2561506130
aI2190260215
aI1249964749
aI1252312938
aI1234087645
aI137286719
aI107189999
aI2805411010
aI17931651
aI2327574483
aI2810036747
aI487674090
aI234443116
aI746118750
aI2841542670
aI2789459317
aI2253449863
aI1522730131
aI1489999633
aI2809776789
aI1284636392
aI2804541855
aI17921223
aI16936556
aI2842187262
aI2797737711
aI2809941076
aI2831683130
aI610996482
aI1573499419
aI525221808
aI2177847361
aI2842192249
aI2822901516
aI243677446
aI1142140670
aI2733475167
aI449953795
aI2505083281
aI103141786
aI1366824192
aI2268339048
aI2794653773
aI237713015
aI2809632736
aI57891911
aI2214108595
aI433151179
aI2809653364
aI2842013046
aI318029974
aI48284464
aI1690664414
aI2842008206
aI65282968
aI2835500089
aI452871348
aI319586029
aI2163519722
aI1511146094
aI2841904272
aI552489439
aI1041771619
aI39910473
aI22781498
aI555520424
aI255933872
aI2331962498
aI101042431
aI61117703
aI2582146410
aI2809126641
aI428400588
aI464083081
aI2503092456
aI2797921121
aI1448611946
aI2701419571
aI2806345977
aI2793737207
aI2412306650
aI516508537
aI31470909
aI2167589659
aI14307630
aI593169164
aI16899059
aI69665125
aI2806344651
aI399574866
aI217376860
aI2809365952
aI2809240035
aI903649034
aI55717701
aI2460778407
aI2809281359
aI252769458
aI2545604761
aI403107779
aI501273238
aI214176851
aI217136719
aI843566262
aI2502673586
aI211214035
aI1957446547
aI1257237260
aI36772450
aI275033675
aI337995091
aI2289961735
aI2800149899
aI1627782432
aI150405642
aI449738227
aI220283980
aI2555481469
aI2809008706
aI252573748
aI395891303
aI274167407
aI2787888586
aI531480737
aI185696251
aI2420720966
aI1431935113
aI2840254982
aI176883693
aI2519066536
aI70486250
aI2581279358
aI622613594
aI1114652701
aI2466173148
aI109744804
aI617942465
aI2808237018
aI2771520183
aI2826413502
aI616915962
aI2841557484
aI2410442546
aI2808462341
aI2754539618
aI1047968658
aI2204478351
aI391142509
aI2841545911
aI736748964
aI2331981374
aI468891457
aI2806446500
aI2828291232
aI2473398966
aI360038876
aI2603661745
aI2712208053
aI132449844
aI2834948184
aI2427533413
aI29225126
aI2807749727
aI308606535
aI35906589
aI567327114
aI2377309789
aI2295859371
aI1623631819
aI2776844822
aI2501653418
aI64204803
aI2786141914
aI33454331
aI1599960769
aI2801833648
aI2535974609
aI317078260
aI2807492038
aI253545394
aI2839291693
aI173645672
aI708062498
aI1496072732
aI1001049091
aI2802310127
aI2841189086
aI43794611
aI2147525998
aI2835013374
aI272249981
aI1677319122
aI2799969485
aI2465908590
aI490493959
aI2841068360
aI173161711
aI2801679597
aI606494612
aI2801505782
aI174141335
aI2786887683
aI2693282480
aI190518738
aI2713752906
aI2224854957
aI2210555514
aI2802210377
aI625562583
aI2489902971
aI2720903798
aI458402973
aI102982251
aI117666294
aI404088490
aI27081137
aI2782554901
aI2839679934
aI2563689170
aI2613997154
aI54585077
aI42889631
aI2749935376
aI111767946
aI1480212403
aI2729890520
aI2761563412
aI2638082447
aI2806460272
aI1244484540
aI169037846
aI378611022
aI765609038
aI215553262
aI434624442
aI2764740274
aI746938442
aI2571485981
aI1171614522
aI186209938
aI347858289
aI153329198
aI2730531037
aI846055620
aI2608451527
aI2562495964
aI40014017
aI1570501778
aI253338910
aI2806155532
aI140951300
aI25822958
aI2786855286
aI2186102179
aI402740975
aI2806076121
aI216413810
aI62094562
aI504706062
aI965558509
aI466265125
aI19347763
aI2834854478
aI2663719262
aI607723195
aI1074071580
aI2840461844
aI1362487368
aI223191140
aI1683137492
aI2840479843
aI562774644
aI245262652
aI2839728540
aI470851679
aI430976028
aI2805595427
aI2836671698
aI454742972
aI385502824
aI128712579
aI151254562
aI2836010413
aI14241596
aI416533697
aI56617025
aI2837664138
aI2196131024
aI2802125860
aI2778567091
aI18586763
aI249675331
aI2253528588
aI301787168
aI90391537
aI2808325650
aI2793323063
aI2831021142
aI313390485
aI2342723696
aI2822532192
aI2513263316
aI1250220181
aI284633829
aI136268954
aI1849689720
aI120519194
aI2448166267
aI2487950822
aI2439309170
aI458500379
aI2799628079
aI2352048788
aI2453312280
aI2822418564
aI2480151013
aI700129514
aI2804586208
aI2804539805
aI30190522
aI25701594
aI892692883
aI2742002826
aI73601699
aI2546029458
aI198998758
aI2330068909
aI544859752
aI2788592751
aI336978314
aI215023015
aI2826689863
aI2797561215
aI739622396
aI2234502108
aI2839672969
aI2707155745
aI18706121
aI2839576892
aI2839576400
aI504613784
aI2837545903
aI2208530900
aI1406864796
aI1968115100
aI314078583
aI1637553733
aI222804288
aI1102423122
aI2833444058
aI172689745
aI221350722
aI1206339222
aI56496752
aI2469396823
aI2788393671
aI2803150120
aI2357185513
aI2359765134
aI604922226
aI2446637910
aI2468581394
aI38718050
aI2736802671
aI2785442320
aI112960428
aI199161569
aI2801143774
aI1026198733
aI37272062
aI81011360
aI2814196700
aI1366844179
aI90224557
aI2811989310
aI2802851103
aI2433523644
aI69727762
aI20794371
aI263188641
aI2773967330
aI2742957535
aI1308464803
aI2812139328
aI382696112
aI83654886
aI2802435539
aI2290161405
aI2788614502
aI251680841
aI2788979440
aI293598623
aI101044917
aI2353887235
aI1059191
aI2797997615
aI2802566097
aI2678365418
aI2469783389
aI2754382022
aI2839160988
aI130248223
aI1573720818
aI2802435537
aI2244058394
aI617135633
aI1487513798
aI2829829970
aI827278112
aI42336911
aI2837574211
aI164576834
aI1264967485
aI2792372693
aI76905639
aI137004103
aI100729599
aI2802022492
aI2773566360
aI44538507
aI16014192
aI455051494
aI1315488954
aI1897256712
a.