(lp0
I2848912070
aI3936403400
aI2431812286
aI871268878999007233
aI1937704801
aI848551091742670848
aI2929035879
aI874883964485455872
aI863125897108475910
aI3092771428
aI869559073322262529
aI2965429609
aI177501696
aI3098684191
aI2547401610
aI880700371215294464
aI2878858914
aI572772817
aI769449025619714048
aI1054665410
aI40330986
aI3184786148
aI2499114926
aI1280524850
aI344128627
aI883866373
aI1542186882
aI143936165
aI2416975820
aI483491119
aI73840958
aI882530796061343744
aI747556026
aI807604242328547329
aI856200147335749632
aI1336968163
aI819360440698470401
aI880070005274050561
aI762897155556270081
aI762901689636626436
aI824506021934665729
aI719591571814031360
aI807881075359760384
aI1437465187
aI71949589
aI3000694526
aI87161157
aI378945307
aI838309621
aI882761408621891586
aI184351446
aI113787007
aI717173734470246403
aI882757857539743746
aI3153983662
aI361620178
aI872538935196393472
aI2206611224
aI2793491716
aI315315419
aI71629997
aI714867422
aI72457220
aI965197580
aI4265120488
aI2760868222
aI3648830298
aI110633909
aI2940031339
aI882724023683211264
aI2790034566
aI106618656
aI882719830188507136
aI274197438
aI258771956
aI37234609
aI224711762
aI148885513
aI878689176350187522
aI61111036
aI871595511823966210
aI731901403485065216
aI2926189341
aI832532549700354049
aI48355239
aI2528957156
aI776882106571993089
aI880452550679547905
aI151346497
aI882696973849120768
aI879548200780091392
aI4734064589
aI882686911881654272
aI882688523500998657
aI248163385
aI882680430473994240
aI3445194080
aI760426066775334912
aI895897939
aI794504815577591809
aI414658761
aI116839635
aI834941874708361216
aI877552878210215937
aI568174882
aI881817457333108736
aI2465417813
aI586543673
aI564702322
aI709000944835371008
aI1339277468
aI878679838243999749
aI275598681
aI703561088
aI2395078662
aI4874174223
aI882651391684116480
aI64394783
aI131835464
aI222489392
aI882643670222094336
aI882642170167033857
aI882642672665677824
aI2335593491
aI74195277
aI882627218136076290
aI516511923
aI4909194712
aI796662752458641408
aI717189324
aI573797220
aI462501838
aI882631806209605632
aI882628204501934080
aI1343298679
aI872511557061812224
aI882626011912966144
aI875055991733325826
aI2158035001
aI882622195301830659
aI1544564767
aI3166589479
aI601867706
aI3042913103
aI2956175008
aI882608263774310400
aI882613449066291200
aI562137381
aI3167072319
aI882611150445322241
aI78181025
aI738377093772283905
aI4825264594
aI882605595844653056
aI3177161717
aI141429404
aI274031485
aI872182185998118912
aI220059204
aI863617855232909312
aI784776180968878080
aI828877897708474368
aI805963483267284992
aI3298293247
aI546919470
aI726026911520956416
aI313075834
aI299783563
aI777676687265763332
aI2885572798
aI916913466
aI882587757213663233
aI844402503093497856
aI882589674279227396
aI315468275
aI712535372878778368
aI350368784
aI882588019412279296
aI816632820776828928
aI506297327
aI1062785276
aI852757301236645889
aI840617208405450752
aI267628973
aI844655240595099649
aI636845401
aI104851823
aI18832553
aI99557296
aI763838869
aI195828626
aI790345330705346560
aI856102057836773376
aI1466243658
aI749837555080826884
aI830001723305517056
aI77732172
aI882552767386193920
aI834374552905990145
aI882542622387994626
aI798078619050459136
aI881872517866147841
aI840553275225075712
aI85105108
aI4624189643
aI194173887
aI4883892573
aI845276010287390721
aI27049523
aI880287981231251456
aI882533510736740352
aI210002997
aI1297481840
aI729989755207720960
aI823860977133350912
aI2339887206
aI816678464463900672
aI1261519088
aI4823831790
aI2327209662
aI702485730
aI610224443
aI452447610
aI495763400
aI84120364
aI861591649993990144
aI4272820396
aI739392163973365760
aI2545033485
aI123258995
aI869180483720146944
aI75266120
aI249650050
aI2373997981
aI744321853599031298
aI882205388036345857
aI68152535
aI268534761
aI882491021887713280
aI1412413843
aI1278408386
aI882487960729505792
aI882490403508715521
aI3816251294
aI4133730677
aI132778477
aI816708360
aI860200483922870273
aI55275020
aI878134409077039104
aI875335005366505472
aI973144388
aI2780325648
aI3284455094
aI829587328888950784
aI352097328
aI882418771306070017
aI844302989892341761
aI882087251454312448
aI824673811991662594
aI3383720739
aI876816081993715712
aI882455463157223424
aI902515550
aI850343466257104896
aI2890746684
aI836471852457463808
aI93985000
aI2597893176
aI747959772503113728
aI312252977
aI421721166
aI3226149703
aI882445745730736128
aI182094289
aI817616993918521344
aI4298722342
aI2484952008
aI161560710
aI3069367617
aI803959938301050880
aI863407738222772224
aI974366076
aI785375648
aI805383482881036288
aI2887000288
aI14755314
aI83217451
aI165516388
aI821876584785334272
aI44623281
aI869870892
aI743401687063404545
aI765651527910293504
aI64703578
aI196455323
aI710614363
aI387200908
aI795570915597807616
aI149677891
aI472414514
aI306194445
aI807704205985189893
aI2256057823
aI3934132276
aI2696788248
aI882366008668848128
aI2828090388
aI430644058
aI882353459810402305
aI103550311
aI863151738940817408
aI76513711
aI123736633
aI2976881146
aI332070660
aI43140228
aI605116696
aI4485364048
aI2880306478
aI489232661
aI2830117429
aI433590381
aI777813183734116352
aI105991433
aI160243585
aI868858242390216705
aI37814382
aI882306669467885569
aI879798118094712832
aI1662209479
aI3251699919
aI322458359
aI848468443762262016
aI625615659
aI882290937111625729
aI813948807285063680
aI715512472786960384
aI881219201490460672
aI878301226479300608
aI882278696803082244
aI393375774
aI218576357
aI307725114
aI20814863
aI84606043
aI754742924
aI882020008909352960
aI528652681
aI743507628190425088
aI20570778
aI17376249
aI224312564
aI93653981
aI2745070097
aI2234912598
aI4003595354
aI1011326353
aI775645693927100420
aI882268506003304449
aI867301966224932864
aI79856051
aI882227074705924096
aI3812692816
aI86341191
aI175912184
aI816405653862449156
aI847946262766911488
aI575388754
aI882245747235618816
aI80248752
aI67324855
aI393072663
aI2334169159
aI2162373878
aI336391941
aI863087734348333057
aI89790575
aI2357201539
aI882184021375152128
aI882015338963099648
aI879549637488762884
aI877222833893629952
aI882236290824941568
aI94385862
aI777640141569548288
aI873136324550807552
aI874987998953168897
aI825587463280324610
aI277798049
aI882230660777299968
aI234134862
aI404265594
aI2192889462
aI206290179
aI2788419361
aI154184498
aI865172630466416640
aI4903294000
aI249972788
aI882212369522360322
aI885405949
aI30694157
aI225727092
aI853557319606480896
aI820175334712733696
aI316772959
aI2900392272
aI865877947151859712
aI882163436771319809
aI882198549831835648
aI99720656
aI792401970032181248
aI164236457
aI574247535
aI882184449143656448
aI53322253
aI875674604328693760
aI2209582653
aI881944225360760835
aI829389225107795968
aI811573184323461124
aI97152274
aI229767690
aI449195446
aI1430216336
aI2512666369
aI2770106175
aI874289545474445313
aI1953911030
aI874570719555989504
aI880814266311430144
aI1049875249
aI104293939
aI221732114
aI4534865420
aI745491410514673664
aI2486974327
aI859207030367592449
aI2808256204
aI874863869998575616
aI853536372862443520
aI534191388
aI90348026
aI861294545845313538
aI864880117759201280
aI879028569095020544
aI324745216
aI2709949140
aI806088503683678208
aI2575796356
aI787644844827111424
aI527768000
aI308311574
aI325102243
aI734190144727568384
aI314354765
aI175354940
aI882131518151311360
aI861109183386533888
aI1086249522
aI390746337
aI720434029116272641
aI17594102
aI790740462
aI213870748
aI1571078521
aI881869063382638596
aI704941483292561408
aI335856757
aI2784964970
aI725930702848430080
aI82537886
aI300161933
aI3698746939
aI74634241
aI1239542016
aI702679028021518336
aI795807514369486851
aI2874993318
aI4069763960
aI2197737187
aI874126300360736768
aI165392678
aI270259625
aI1420709882
aI855803245100453890
aI880881792668053504
aI4881342994
aI723152147290841088
aI765155817712521217
aI945606416
aI4807258152
aI56099496
aI82490724
aI756591535123210240
aI872905524962099200
aI882043703480791040
aI2355559474
aI882004649649229825
aI3240236515
aI554875217
aI14131630
aI3377649257
aI854821462385070081
aI855132909082206208
aI4089883875
aI882000330560593920
aI2495065959
aI832521716161269760
aI160867106
aI4695932593
aI867839351543263234
aI717776319917002752
aI770746185862619136
aI2335603815
aI3397541801
aI4905554752
aI877303539051241473
aI2447910815
aI815677712270508032
aI25536407
aI399837725
aI763116924934889472
aI881598982249742336
aI881921328143532032
aI2294721782
aI881963306713468928
aI239126402
aI162862623
aI3395359559
aI834538685009899520
aI2301207118
aI826335866360569856
aI17429670
aI20247817
aI3515604797
aI868438267
aI881952220282970112
aI402122615
aI880525293987000321
aI803627849437483008
aI4519675757
aI877388509157445632
aI3259759089
aI343557971
aI3256721874
aI867806236602847233
aI817241707330695169
aI881174996034473985
aI1027827030
aI1949590742
aI1315508138
aI872559144766713857
aI881918158826766336
aI829695594981646336
aI859260425648705537
aI2187872606
aI881914111553970176
aI3017284979
aI881915855587737601
aI880221495435374592
aI564984680
aI3219357819
aI161667802
aI3293165370
aI880802271109406721
aI2188051368
aI412670172
aI4055473099
aI4229489253
aI1745719082
aI4921959122
aI1726688833
aI816943700509163520
aI3364333245
aI2802383341
aI763014193754869760
aI732155682
aI822779824510906368
aI63064433
aI859504200891412483
aI4185170654
aI873083528501616640
aI881884796984729601
aI13936962
aI747753333629292544
aI744063743458426886
aI2591326011
aI786550895093829632
aI762934818531340288
aI776037486766075905
aI864376246712635392
aI585230005
aI855423131351097345
aI54209449
aI964497866
aI633924482
aI20187997
aI286358080
aI2830215114
aI881858379756339201
aI702148797930012672
aI811355623
aI1089284214
aI151470872
aI722277140
aI721494298374619138
aI810209016
aI271269430
aI271414098
aI1443231536
aI704578479883472897
aI731109819743141888
aI144678175
aI873236767528243200
aI881803987275698177
aI799866105774882816
aI881842488000073728
aI4672194266
aI881586815001604096
aI814295862603939841
aI927275294
aI874233482813296640
aI2934564259
aI877064391191089152
aI881823407708532736
aI2256626881
aI764238577073020932
aI773821717546409984
aI4641116118
aI55213646
aI881783487111606274
aI880412889181564930
aI1264721130
aI197158526
aI843751761315840000
aI836553810382311424
aI3313575286
aI1547300322
aI729655869647036416
aI2427086976
aI865273704145702912
aI1198123387
aI877900157676695553
aI780864178290462720
aI1729057788
aI45788675
aI2267002150
aI716509465105682432
aI4202058025
aI2881741416
aI160206174
aI881497191612915713
aI881605789621813249
aI881754860349030400
aI3240368174
aI4855159693
aI336291395
aI2740062739
aI2210201803
aI881723909892038656
aI3255573806
aI623739702
aI3683789121
aI881572780675915777
aI881455407553806337
aI837392513019203584
aI2476905372
aI881732182217297922
aI868579117846847488
aI881595714043748352
aI4496524213
aI765119297895006209
aI524983094
aI881724267305385984
aI881724412847771649
aI853027972135223301
aI2969662865
aI838040652713607168
aI777573080
aI3242499237
aI702353275
aI877809529899044864
aI881590396366839809
aI3193521190
aI8321382
aI1411700892
aI146076760
aI3978627677
aI3296430941
aI735925116194807808
aI819979449512947714
aI1530816770
aI257733117
aI1589827292
aI359948849
aI4729294327
aI404558031
aI3868725972
aI809984010395013120
aI2961154691
aI837187634384392193
aI881593224208494593
aI76073021
aI881630175900962817
aI869155225545953280
aI18536530
aI2289098932
aI805037863087833089
aI96606584
aI836841302
aI145336441
aI176489641
aI867021506899058688
aI587134471
aI233477343
aI881587473918373889
aI870294970963554305
aI2568805786
aI830261492301852672
aI718690286
aI1232397770
aI262827176
aI773929420604268544
aI2361553291
aI534709565
aI763031959014604800
aI874004809019535360
aI877083760231157760
aI880159320767422465
aI833052643547308032
aI860827534472228865
aI3330053963
aI2959278336
aI4015698922
aI633554148
aI22273853
aI713009555156766721
aI3097760152
aI3041245764
aI872063089
aI83536962
aI710596529535459328
aI190588822
aI3637291638
aI956383772
aI4675486236
aI1417400635
aI881539149198536706
aI1918724822
aI881538531977564162
aI708129566460514305
aI33799512
aI846494419620675584
aI1099574946
aI296677621
aI716229159488528387
aI2594479699
aI740892313
aI881228107562106880
aI2854954899
aI89207234
aI554959994
aI2408517710
aI68685167
aI21143960
aI43026557
aI4759115953
aI784792761891299328
aI806949877095669760
aI4319554833
aI872096747270615042
aI869483758226993153
aI157171884
aI300057723
aI881478469724512257
aI3188741168
aI89629904
aI880861086123253760
aI881461356683288579
aI3800962454
aI748045124656070656
aI925363453
aI1320872143
aI455703700
aI596233689
aI95707063
aI880812480049496064
aI797995953223413762
aI709971914811424769
aI881439609510428672
aI2859154355
aI844876799221743617
aI881422782696898562
aI457546523
aI327036117
aI3645582733
aI863894312454631425
aI198634681
aI879999627562549249
aI2926655960
aI510070621
aI379750334
aI845652195248918528
aI735404675206393856
aI857841042
aI31464409
aI2882127295
aI880566821287538688
aI36923816
aI2193537080
aI3771925533
aI835161439493046275
aI114476356
aI2636804262
aI848068295613759490
aI881211735692124160
aI881385919957303296
aI839029414054801408
aI365479324
aI2764987502
aI852947886
aI1226726778
aI852179622435459074
aI231904077
aI632743484
aI880314029427761152
aI1229631318
aI881360221662093315
aI4682258606
aI2698247942
aI705486037380763648
aI368844247
aI3267317756
aI881345687589408768
aI881119270247297024
aI2630256238
aI3021547872
aI2346585709
aI242169586
aI872852257766813696
aI881332281062850560
aI881330271722684417
aI824065747727093761
aI197561784
aI789645804348776448
aI1195952851
aI2394794474
aI881307636855173123
aI140551978
aI1194318325
aI540643243
aI881311095054401536
aI2892563765
aI17087243
aI278533408
aI881275791949967360
aI33793124
aI768204815600066560
aI880917156317102080
aI1240236162
aI1532694067
aI880965529447649282
aI2912362011
aI880195810075561984
aI1613593099
aI1327212356
aI270622200
aI797728433476423680
aI1142438323
aI83353779
aI776574088106090496
aI737117330
aI15157335
aI816188778012442624
aI3897465754
aI877215380892266497
aI867481656306925570
aI809305308485079040
aI73490239
aI862303184605388800
aI827957975792877568
aI1477663920
aI440928877
aI700716255
aI2380957170
aI514914416
aI881213228377919488
aI837528900
aI3504729312
aI3533940733
aI2522956883
aI2900426113
aI863161493310885888
aI806953185696854016
aI817290518799466497
aI250951082
aI2881898997
aI1114781378
aI360822261
aI879886350836654080
aI799994364541935616
aI150141965
aI402639804
aI2547967962
aI880876972678762497
aI132895688
aI2887410423
aI2751928227
aI2354892536
aI2361062917
aI877467056664399872
aI3389170235
aI2177209302
aI2878472976
aI278108511
aI877239715157622784
aI42188764
aI2542700240
aI792650037801213952
aI1512253621
aI823148370520784898
aI138676305
aI536240956
aI246274465
aI3874133533
aI3327609012
aI315163673
aI881071764352126976
aI4632233280
aI74099302
aI774311931502997504
aI881003344382140417
aI609313335
aI881138621486514177
aI860833320543731712
aI764748471580499969
aI749605207328251904
aI765453463224332288
aI877128979202719744
aI357435597
aI32140095
aI1419829909
aI855300031854788610
aI106791513
aI63140631
aI377318237
aI786867100841185280
aI713443666594045956
aI375986308
aI111342687
aI4307873660
aI1311959312
aI1328944322
aI1430573299
aI823916047333851136
aI120815678
aI838731347376009216
aI881103950031630337
aI881095565966282752
aI409898474
aI93804652
aI195947124
aI872436375412494337
aI851734889741340673
aI114381453
aI3082225520
aI340955172
aI830133862902665217
aI880768266041303041
aI4722203664
aI881086888765001731
aI3062610877
aI4715242907
aI880828813617364996
aI891252068
aI398060002
aI860615457820246016
aI285265641
aI1690785464
aI756363529142296576
aI1554053658
aI3295430252
aI2368390917
aI843464569557147649
aI2907863958
aI858596053162967040
aI3080656938
aI701680868763435008
aI1575870403
aI765775393039286273
aI868904667534819329
aI440945537
aI799198091370987520
aI1329416443
aI2416936627
aI437205145
aI804633837858914304
aI76217550
aI855127556089143302
aI83876229
aI384250175
aI880593096085389312
aI722481375450939393
aI880717838721441792
aI714700927689756672
aI137320685
aI881029806850064385
aI405202251
aI31220240
aI881027443355549696
aI1107104744
aI431610965
aI1178708599
aI410781186
aI879546759533387776
aI2825510378
aI3625664541
aI3033166016
aI879499535873183745
aI961916132
aI851683303174225920
aI368061570
aI2623275826
aI520016998
aI17804034
aI913733473
aI874829471219671040
aI121019631
aI1080315392
aI871535865696141312
aI814355613178269696
aI244251525
aI880948404230148096
aI709666608768110592
aI3072976267
aI29709947
aI2423284704
aI880977534644604928
aI876700009646784512
aI1911705703
aI2978293489
aI880955338782060545
aI2216155214
aI3234090103
aI61651117
aI3294183073
aI855246842711470080
aI159057450
aI878334913258369024
aI1074222872
aI91618994
aI2176836432
aI880856711153713152
aI391490854
aI18870457
aI145736539
aI15049353
aI791718032649424896
aI834131542939205633
aI880889040509292545
aI1676070476
aI864501599179288576
aI108001352
aI715300119420252160
aI30825508
aI4174803627
aI2942160775
aI371695725
aI3110912361
aI37156711
aI177645045
aI746728765
aI1000616688
aI167377050
aI871408774103404548
aI878012685815885829
aI3344680745
aI879869006785552384
aI3985055194
aI1557537037
aI880870615946846210
aI2710843223
aI45440826
aI464681988
aI879772238882451456
aI880856458841030656
aI880855604180377600
aI513500619
aI870628691797258240
aI143438406
aI3288960683
aI157926366
aI702057235
aI3433148333
aI211257248
aI2884146719
aI2232770996
aI1659884011
aI704584223026503680
aI1560057752
aI876451724705320961
aI880827534841139200
aI189266930
aI372348588
aI934772886
aI978853975
aI2303042059
aI880815855172452352
aI285058584
aI880807201476009985
aI880518691309461505
aI1921697767
aI3189012039
aI880805755829460992
aI3100165111
aI880677660044689410
aI1705019730
aI2713864140
aI838227473678667776
aI795712437513285632
aI847195235625156608
aI880798634417152000
aI715378154
aI4689730945
aI834737483405484032
aI1476692586
aI875078146621558784
aI2828291363
aI249234756
aI70328700
aI1959929497
aI870481024966311936
aI1220215196
aI738300617110790148
aI846032191574433792
aI45404490
aI242328696
aI705329936379330560
aI490563681
aI369533
aI4293074117
aI1323710101
aI3312127922
aI708610149749891072
aI3159301981
aI4864070003
aI101047175
aI798797519241125888
aI3306228792
aI280603808
aI754850953258467328
aI38147858
aI704274728207265792
aI1901687089
aI3169087669
aI880721386133651457
aI2911101004
aI220584388
aI2817329701
aI2608226882
aI2316629564
aI148298547
aI866191129003163648
aI880691409698902016
aI138391407
aI3437242907
aI305604722
aI1146079104
aI798168800596283392
aI2430170205
aI300905872
aI873949606714818560
aI182987577
aI285147544
aI66549264
aI763401815413100544
aI3999892582
aI4582383459
aI26513030
aI875661854588141568
aI738200714464264193
aI1046117106
aI331495468
aI205344157
aI801026537168535552
aI3049219303
aI142185588
aI363684147
aI547700271
aI219836945
aI880194909621366784
aI816634994579816448
aI230836571
aI786219407739543552
aI442349528
aI265873240
aI2175776058
aI34524668
aI1567287534
aI1616897508
aI824188233672179712
aI2900364496
aI536662392
aI605099156
aI3734705246
aI858290611614437377
aI3306528847
aI584524466
aI345181084
aI826540178437177345
aI23733713
aI730172531311783936
aI72297508
aI3761894412
aI428126254
aI1525247384
aI59837358
aI34123262
aI4501227200
aI779357409508663296
aI140545760
aI214969341
aI2512985841
aI132439729
aI754267184877174784
aI1514422082
aI122544414
aI817895175884275712
aI3054305418
aI823143613743759361
aI823822446448889857
aI284308605
aI768682653239218176
aI569278695
aI880600852347711488
aI339313517
aI1578186602
aI390709699
aI826121595819327493
aI43868899
aI251309951
aI935135522
aI854532036492746752
aI83739249
aI159703751
aI18267504
aI872706975976390656
aI1117925754
aI78121490
aI740977061859368960
aI111397743
aI153666967
aI822166194899865600
aI4847141780
aI141750661
aI876905713112625152
aI3416483861
aI150963461
aI792721987504340992
aI67618734
aI60744574
aI190770407
aI1421102526
aI825486889784328195
aI876966626473783296
aI3121412302
aI879663599815467008
aI510615867
aI488601683
aI880514823787819009
aI544904863
aI880505905321844736
aI877625932822986754
aI97892870
aI22434371
aI720316790060896256
aI73562231
aI72922853
aI79717830
aI867066859186601984
aI15950369
aI173780268
aI3296053614
aI2944279033
aI8745672
aI19717217
aI365562281
aI2538367453
aI1519605168
aI767637981389844480
aI84764214
aI25419499
aI703240086033473537
aI43188759
aI877750588481691649
aI748743528520364032
aI3452900534
aI1726155500
aI730492477174652928
aI115572950
aI152733849
aI526420430
aI2460359965
aI1603602422
aI3178413894
aI14820814
aI15398275
aI2199190076
aI1444463310
aI1909499528
aI880478316976775169
aI2224239031
aI885333548
aI818514223139586048
aI727244723606396929
aI773757627910291456
aI4022950034
aI861922981471289346
aI4729166222
aI24892883
aI44404556
aI2456227940
aI2246853238
aI493611896
aI2197501855
aI815901403407351808
aI855301855382876161
aI102534313
aI284939574
aI1894643755
aI738014050135740417
aI1689237421
aI166633528
aI875374395769987077
aI3131322801
aI1205788436
aI65711912
aI125792460
aI232652180
aI94058092
aI346182014
aI239389205
aI880102703380279297
aI849175406787821568
aI1957081213
aI27829804
aI846052278960373760
aI524539314
aI2977111535
aI880453680562044928
aI2203801489
aI297054186
aI869858540319539201
aI21160276
aI3303010899
aI116662871
aI880436981762805760
aI39288269
aI880444457220542464
aI526522622
aI880444097969790976
aI1006166112
aI1180009159
aI845509474928357380
aI240358186
aI880019509934866432
aI118389221
aI859034042020184064
aI388720815
aI2373196350
aI302606546
aI19618455
aI719172311232827392
aI310558769
aI2796088209
aI769033074604638209
aI880428416457224192
aI815558915861647360
aI880425041917247488
aI95244018
aI872856401730818050
aI2205745133
aI877201404225605638
aI700397704006873088
aI839582502792622084
aI432539465
aI880420518452633601
aI880420315381280768
aI719468349852286976
aI710714423716024321
aI801077307721076736
aI124976358
aI62841131
aI445080303
aI743067340116504576
aI822786979389534208
aI14098619
aI880400821191663617
aI861967823555502081
aI845504621590298624
aI757531673240145921
aI2886564101
aI35293504
aI2151362767
aI2257326158
aI3772819535
aI4529819062
aI880393223335759873
aI1595786174
aI880139132357529600
aI877216773707227137
aI593403793
aI799009715107688448
aI880386219242274818
aI30020145
aI1441634900
aI3754640902
aI866807950916145156
aI73614843
aI858286121607987200
aI703834255806181376
aI798469454174658561
aI827085711681662976
aI877891200853913600
aI350971633
aI2850377451
aI423734563
aI2334626346
aI105058480
aI94874995
aI3936955641
aI798438563872473088
aI1366959241
aI817282040366104577
aI3684432378
aI253541745
aI3891773807
aI2235521108
aI4226941333
aI1712062166
aI541218981
aI1172531426
aI806436820980375552
aI3358500851
aI204253749
aI868388638601728000
aI777242712
aI895234650
aI612757076
aI742284300268212224
aI813199672340779009
aI2937272436
aI4166941698
aI240570210
aI264233373
aI211785410
aI854592991649869824
aI557277963
aI1133462276
aI3289023127
aI230916093
aI481978467
aI2818226379
aI1637471474
aI880314871555825665
aI879582674423357440
aI880308746190286848
aI3008026988
aI880307617205059584
aI573001203
aI294707961
aI849728655748026369
aI849430031025811459
aI89488036
aI88549662
aI864255025
aI1489608763
aI297323875
aI761094590690500608
aI478610100
aI558305439
aI573830439
aI73126409
aI3052936344
aI307100295
aI2910681479
aI4822055399
aI240548479
aI840714562911518720
aI334171286
aI2466602222
aI110057751
aI3191921383
aI1714943054
aI844738207858114560
aI141352996
aI2510152436
aI3008405259
aI42791504
aI30501131
aI62956448
aI290897718
aI868092053879754752
aI2610884145
aI713952247747489792
aI163389055
aI808507336012812288
aI370466073
aI86467065
aI2835329094
aI381857867
aI216998345
aI740018799479394304
aI262343241
aI3024905746
aI120538691
aI758229674690437120
aI290120662
aI849091756050264064
aI14299202
aI856248762519490560
aI74031926
aI876986812996124673
aI465627285
aI855936038883164160
aI3305842472
aI3372842795
aI880210705558917120
aI629599619
aI863537518641283072
aI15743570
aI2797991757
aI872624672080142337
aI944560986
aI880195505401278464
aI38498373
aI594968313
aI741892043237101569
aI135357942
aI64775596
aI588751321
aI349349173
aI877304703335505921
aI361728975
aI880182620641910785
aI2352126377
aI259465091
aI860374146710163457
aI2850330687
aI151328886
aI858846018875424768
aI1364118204
aI24256264
aI3973465274
aI137210948
aI235071986
aI874899741674545152
aI3288250263
aI867502877824008192
aI105784317
aI2370585248
aI879633385
aI2306501407
aI853271455
aI880078514325782528
aI28094474
aI868326061582503936
aI3043845547
aI283403868
aI537494964
aI4718356457
aI1542402133
aI2463654482
aI64280155
aI840018256404590594
aI790987508486119425
aI2367178630
aI880133683314872320
aI146576651
aI92327140
aI3371946041
aI126606165
aI702352111598592000
aI3430977213
aI459395844
aI3013447207
aI238126759
aI781745847088275456
aI580764886
aI880119154631745538
aI51872573
aI4205748341
aI366711227
aI344
aI872147802230595584
aI846866780459028481
aI879902971407904769
aI791842376
aI126406758
aI352434768
aI880094045204250625
aI841311099773440000
aI2282520900
aI820539289318473728
aI103280408
aI872358189416710144
aI835177003745689600
aI822942011519016960
aI719785176293904385
aI293270992
aI73909163
aI106383950
aI766185800916672512
aI75652758
aI3306656706
aI808012165
aI711132563318812672
aI76304292
aI4257551954
aI4196749888
aI877065596331933700
aI838855010930806784
aI3074498006
aI2717729911
aI76357148
aI52402938
aI880079479237992448
aI196279416
aI2836044056
aI875167617639739393
aI289220564
aI794761543372206080
aI869995238164643840
aI880076163661545472
aI20318398
aI859131483243634689
aI1465652282
aI2828866478
aI877041237550784512
aI12162372
aI40141703
aI207646197
aI2156886934
aI26724164
aI880058267203903488
aI878466816024076288
aI794423598
aI3402447059
aI41450120
aI3322045494
aI754702245531267073
aI42807752
aI377816559
aI2578011672
aI2379713202
aI880060435667361794
aI2827087332
aI59467502
aI3049674467
aI4582568642
aI879375943550214144
aI745611158
aI501100079
aI376128191
aI701503439826776064
aI4312096274
aI349411253
aI859717894573314048
aI3873244593
aI248347231
aI805406834701893632
aI780022040245829632
aI1338752436
aI175815596
aI727805961205878785
aI866721173798883328
aI875716405869588484
aI140446965
aI871565056286220288
aI615749940
aI475669219
aI880397358
aI389429982
aI48712306
aI880018899370102784
aI4718211267
aI39783868
aI801620373221609472
aI303551426
aI2249580991
aI847038520086560768
aI875285873826443265
aI829517403419668480
aI835073274
aI203495962
aI708689222
aI504173109
aI26863907
aI331720227
aI847822792196280322
aI833641908715061249
aI743669430106787840
aI715772274
aI2399786400
aI110426166
aI3252575792
aI42924903
aI825620526269857792
aI2791422254
aI153467528
aI823035882751934465
aI450069586
aI852420905548611584
aI2503727602
aI717966172239618048
aI2292123279
aI861599354389495808
aI3188402136
aI871611347603148800
aI783355554
aI878469195335319552
aI832086687547265026
aI257857398
aI817259988091432962
aI2895582636
aI836589822928117761
aI407815312
aI100983215
aI2872202650
aI879307309394141184
aI4270962755
aI2561608406
aI879632419602681856
aI141503404
aI874873029490339841
aI873000162515337217
aI879956267334119424
aI809871420041768960
aI879948997816963072
aI776707135052754944
aI1351202436
aI1683831492
aI768684725737254912
aI868089586018340864
aI602514349
aI862628166254436354
aI879944278415474689
aI874131421866057728
aI806997994168057857
aI33231067
aI744832567
aI754896570957520897
aI828128849187594240
aI592487997
aI879594038533382146
aI1116331980
aI707548098449395714
aI2260614727
aI1128520646
aI787290475824766978
aI787288919033286656
aI787286940441645056
aI787284968464449537
aI787283887315521536
aI787283378143756296
aI1580662512
aI787278115697332224
aI787275920163745792
aI787245516404895744
aI787237048671272961
aI787235569755561985
aI879639016433307650
aI855157575033270272
aI787218347653943296
aI340331086
aI879773958731583488
aI2366579377
aI751891807085195265
aI151803693
aI826886563
aI3148260383
aI2894762795
aI869085397615132672
aI787203247769395201
aI1339719175
aI389856337
aI786920689546649600
aI39606063
aI879261149337923584
aI786915328928325632
aI786914918607892480
aI17357233
aI170391169
aI879878498982260737
aI505456862
aI384151589
aI17195280
aI39889373
aI2579481129
aI3327107916
aI606661420
aI745285646617436162
aI3702132321
aI790630536226013185
aI170532656
aI4717313913
aI1043564736
aI385800532
aI3297226807
aI220373319
aI10667352
aI71131878
aI2281309098
aI769329970439086081
aI830804904511811584
aI798635883729715200
aI874271232723648512
aI879865841608732675
aI846157429767319552
aI879835359554658304
aI3683147834
aI170272212
aI835155660157272065
aI169711034
aI720311573277855744
aI397135351
aI875602170774671361
aI349446689
aI467954774
aI2214909758
aI879665351683743744
aI879852475641204740
aI32883080
aI2564819538
aI839920519923265536
aI567493081
aI4913575683
aI124981724
aI24510173
aI14842958
aI759207057618771969
aI2586973020
aI2732794685
aI745058878878945280
aI2198972504
aI921816774
aI873505478994612224
aI879765553057017857
aI878660106182955009
aI879686571997356032
aI112908202
aI823903120124248064
aI814506362621329408
aI3209019916
aI287443691
aI727171488223256576
aI879544686830080001
aI879788861123174402
aI250526447
aI877005805685428224
aI879798703682461697
aI832970942
aI374287385
aI22834599
aI361343782
aI746959097040232448
aI857672542856896512
aI4034456547
aI843631950
aI65756561
aI862424492
aI131325581
aI879767428141531136
aI2402732490
aI563221818
aI1245675733
aI777555703213031425
aI62978577
aI585611666
aI359454419
aI136072974
aI1542558090
aI525494547
aI789566941333626880
aI76922128
aI879772035555016704
aI1477107716
aI80390182
aI850095613521821700
aI2176405487
aI246395397
aI18940892
aI83814551
aI2772189199
aI874696280
aI770863648499601408
aI112819999
aI2645233939
aI192518634
aI879664568657752065
aI2905012639
aI242657504
aI879759906089213954
aI2975401510
aI3040703994
aI186815406
aI879758092203905024
aI97436427
aI879333427014758401
aI335169230
aI869904089097875456
aI705704954
aI278227888
aI445798080
aI139107766
aI36585116
aI3194793457
aI1626007704
aI1381557836
aI28644746
aI817065391520415744
aI18584946
aI93317799
aI879738562626899968
aI85200484
aI871359890068979712
aI37116797
aI1909650354
aI22756922
aI879717918329753600
aI54668740
aI4863819343
aI433894738
aI879049997114904576
aI835834691294986240
aI876826784028921857
aI727245686660583425
aI879728982589091840
aI850273574
aI878381835167858688
aI3981149114
aI577716546
aI1428466675
aI112595512
aI2925753598
aI357901526
aI879337779989282816
aI743655100707647488
aI569619617
aI4912523887
aI2712716778
aI872060308872998912
aI878674577160720384
aI874420060256960512
aI2228107549
aI1658278922
aI1329349226
aI57783148
aI309681750
aI605049777
aI868105786840432641
aI3230478965
aI113577658
aI879712553814937600
aI824612396585123840
aI872995171721519104
aI866250151
aI879711354399203330
aI34685921
aI788386444783910912
aI861292780886392835
aI92965682
aI471139183
aI1920771422
aI788381593194815488
aI206179930
aI788381165442838528
aI2241265483
aI879705725542559745
aI1337246018
aI17538769
aI60683890
aI850525004600975361
aI788357336410632192
aI849642879656001536
aI822398207414124544
aI3130243801
aI353918313
aI241852408
aI879685632699846656
aI136681742
aI838801744972886017
aI1121215590
aI910679312
aI2527569829
aI50028644
aI879686596878110721
aI221366682
aI875283673108561921
aI2871020919
aI870017281040019456
aI2377920127
aI338336759
aI879408795352543232
aI223424662
aI145802526
aI766282052857634816
aI3189464286
aI305962181
aI219725260
aI804337905669992448
aI488603380
aI865655451840462848
aI830448623401832449
aI131812368
aI145863715
aI586165380
aI879668183858270209
aI770591485729189889
aI4148372175
aI873095655455047681
aI328165039
aI879665143898099712
aI877088899679518720
aI198287710
aI780727281450782721
aI4666734103
aI879653332150874112
aI2567562782
aI822008026626461696
aI24780254
aI454840365
aI2973856422
aI749607632491675648
aI2443738849
aI761902405399224320
aI1144312836
aI430782591
aI802476530513416192
aI876405681301139457
aI879595575049670657
aI293532794
aI1402647745
aI1664514763
aI754385006554787840
aI842377452232032256
aI141562484
aI865668649
aI3647564293
aI1317603200
aI821741556147351553
aI368269071
aI92764064
aI878901912468209665
aI875586749145141248
aI539144387
aI879592859250286592
aI1400128104
aI879630078824423424
aI1487573322
aI417370619
aI257118243
aI2287255040
aI874273714254237698
aI726132302
aI879346939048988676
aI877169336053620736
aI733688125202026497
aI777580759
aI3054048451
aI3274347193
aI790575068917018624
aI879612519706488832
aI879611012013473792
aI790569621694787585
aI1512924272
aI878197365445931008
aI831066146
aI67145967
aI2959107504
aI879595291653156864
aI341351382
aI365058981
aI790212905136369664
aI790210769946238979
aI790207615309492224
aI867281200636981248
aI878851215794229249
aI878829286458892289
aI756719909669838848
aI853772836061585409
aI825977200088227840
aI4439603659
aI2540080517
aI869187632026316800
aI844525585258885120
aI343572648
aI801716243157745664
aI337506082
aI2911999676
aI2883366172
aI863649564816924672
aI829204886
aI876257248908947460
aI755402169692610562
aI245917479
aI2724261223
aI874137792434978817
aI1179890594
aI3307837624
aI325575373
aI2430577350
aI3326483751
aI194208480
aI849860673752489984
aI38249927
aI398614129
aI2970916889
aI533098500
aI2343297888
aI4041786016
aI2287589407
aI722323644265811968
aI880550750
aI2994347252
aI859689172558168064
aI2803508767
aI855605989256646656
aI879534263099691008
aI77509845
aI24999933
aI2891975232
aI66991522
aI1958443105
aI270207246
aI877814459376558080
aI234706143
aI41767544
aI1703590964
aI17376452
aI3292073873
aI87369876
aI877529838478778368
aI879396441617309696
aI859717521926213632
aI727722281968009217
aI4704900338
aI851089704325959681
aI161799642
aI1480799107
aI784312057361379329
aI3150439258
aI804315053671481344
aI874897598460694528
aI836368713133748226
aI251337479
aI316259463
aI1304250564
aI178879054
aI4926118997
aI528177519
aI605858565
aI4899356054
aI879490718254813185
aI879488578463514624
aI872296796013432832
aI24551605
aI100811675
aI832814407
aI291782166
aI196776859
aI879471159150039041
aI158211382
aI1602574146
aI31548349
aI43939234
aI50155843
aI3305500460
aI286022740
aI198605478
aI313101854
aI222492033
aI871117702840152064
aI865181337728299008
aI837387902015401985
aI878770101306236929
aI878401458
aI877642729915809792
aI241333976
aI491691569
aI635413202
aI399588935
aI784146342797017088
aI538534305
aI263451397
aI721879915700883456
aI223942765
aI2384206398
aI3002843648
aI23119231
aI1145137626
aI143839161
aI2572153748
aI730418695802073088
aI352671015
aI312988866
aI879414067831734272
aI18460105
aI777987159747858432
aI1235190950
aI616008335
aI877903037729128448
aI2739971780
aI879279713516236800
aI878405698291245056
aI738473940163559424
aI3146470298
aI274666481
aI114077878
aI458155884
aI948256002
aI97916991
aI868904199085580289
aI327579944
aI879069055004626944
aI126098723
aI52717886
aI117994642
aI1217663959
aI852967537457463296
aI416536654
aI4875593841
aI879372724891680769
aI1688673218
aI278622045
aI1637434314
aI419614538
aI847424620198100992
aI3235271527
aI104196204
aI333759542
aI2848035851
aI94906139
aI2901134303
aI838222409425649665
aI80752034
aI92075745
aI879349572283314176
aI4879929827
aI66473781
aI863372271515299842
aI325871209
aI879330348567375873
aI42433706
aI214877674
aI460263616
aI761720546
aI2454108210
aI506166012
aI450701146
aI1435383817
aI587001219
aI877890483481071616
aI312286615
aI781808532446326784
aI735787149719523328
aI4724486248
aI879338175864479744
aI820649468865482753
aI705919712539054080
aI856523236988866560
aI877907858008014853
aI24818598
aI4807887161
aI869884402695909377
aI2925831901
aI2399054910
aI879327694881570816
aI104091261
aI3891491893
aI3192173154
aI24066779
aI4611979092
aI165322630
aI839088828170240001
aI236847367
aI779523591578812416
aI438354588
aI879181413345619968
aI425481871
aI81426068
aI726272944129761280
aI879249096707461121
aI859479816671830016
aI2424250178
aI235510636
aI2425150812
aI1623808315
aI3393666632
aI55022973
aI710638872523243520
aI716227436049014784
aI278962426
aI606348008
aI715173921012715520
aI82358310
aI178726070
aI3572769798
aI1829429280
aI451056917
aI838699607500546048
aI840256990198824961
aI762867325775192064
aI269247912
aI2150812041
aI336181646
aI3595520490
aI773104586362093568
aI838434046350852096
aI879290384387645440
aI91313753
aI527336376
aI268928626
aI759114373306650624
aI1034475931
aI2203108364
aI1474829708
aI874859444315856896
aI2783936658
aI974112356
aI862216949891084288
aI789936274090057728
aI3313575482
aI729274550320541696
aI4876144481
aI879275224142839808
aI779424137987100672
aI846737317805076483
aI1466940812
aI230122687
aI865473047096053760
aI870296092566597633
aI789475505946984448
aI3062670811
aI879246289615060992
aI221091942
aI875206648326832128
aI877665441187069952
aI849144309173669888
aI877728086145605632
aI869604947465261056
aI2665246860
aI107191176
aI3266113117
aI2353462612
aI285619128
aI325186804
aI2668907911
aI403365554
aI2744186436
aI165683589
aI727045977295704064
aI144172348
aI2975666074
aI878925419952603138
aI204080785
aI815375842452783104
aI4747361994
aI3198977785
aI544593988
aI737894152122290176
aI140500178
aI294020307
aI106360809
aI2386707763
aI3134400223
aI268166355
aI873141054681133056
aI3012380592
aI879233723664924678
aI879231477388541952
aI3245989715
aI856706997659475968
aI2735916327
aI840066371165679619
aI876541773874552833
aI3016227715
aI3221305651
aI879219185225613312
aI831147208498171906
aI2561314621
aI775583308944068608
aI464543808
aI879222596100694016
aI6725982
aI1093628184
aI875391849308889089
aI821326368
aI155659547
aI2331882216
aI701503702583144448
aI909292326
aI126444116
aI131861033
aI857188162929647616
aI90571414
aI1068751333
aI843618318770614273
aI4452634040
aI389888497
aI2403110124
aI184485311
aI432193251
aI3157349678
aI63923760
aI864976707815657473
aI154446541
aI879194820752932864
aI874603958194417668
aI253120625
aI3292111212
aI291331806
aI851079776513146881
aI3349916294
aI616634450
aI3268086116
aI4404645795
aI878294952425517060
aI741511447323287552
aI137923157
aI2652972083
aI844415352767479808
aI549842937
aI369942106
aI826889125861076992
aI395615694
aI856983194
aI877011576972349440
aI1215352633
aI853291533394522112
aI456426199
aI21550147
aI8958932
aI2971209812
aI1656980312
aI85808086
aI215097291
aI563623067
aI2711576040
aI879146249143955456
aI879142968590036992
aI283788021
aI2608817443
aI700692607932891136
aI818870600039067648
aI2787664508
aI954401106
aI879002316849926144
aI2820858875
aI3303260505
aI2420881465
aI832026295592767488
aI94654842
aI45962400
aI3303652583
aI2597551339
aI23904700
aI2486700389
aI850097031771299846
aI801032665
aI1529466289
aI444720126
aI3755165237
aI3182179213
aI35830258
aI1698727244
aI796487179379888129
aI788508819294982144
aI19553180
aI17996901
aI852435403697029120
aI14240301
aI149584693
aI750010614
aI746751730591883264
aI2306477780
aI294401695
aI2239435442
aI879055247607554049
aI819887020348739584
aI711057900
aI109919128
aI169015706
aI432874218
aI3279020072
aI169848855
aI27690746
aI19903650
aI3310271413
aI2844286601
aI860512045409742853
aI18740659
aI702969828349493249
aI873066000056426497
aI771609323726221312
aI847761435375566848
aI803655120126877696
aI853586523219927041
aI877182794568433666
aI507104335
aI2563599188
aI855426658177871874
aI874694993377710080
aI878980017375645697
aI2778296364
aI879036254712504320
aI324000723
aI34044936
aI878013841371791360
aI814156304914616320
aI2940372929
aI85599677
aI866936360946499585
aI489931881
aI3180492084
aI818482265030324224
aI3627345555
aI876134457710972929
aI590008816
aI2907327717
aI77770874
aI62229156
aI781545493717549060
aI2433805362
aI3646998501
aI878395936069890048
aI560975701
aI3028679420
aI871985608427700224
aI150715506
aI878997929125494784
aI47374987
aI48707325
aI192883032
aI3289984588
aI857305766293905410
aI10299822
aI2469690728
aI1431258540
aI603769186
aI734519339748106240
aI743716640
aI862194421684744192
aI612335756
aI383891734
aI1370483970
aI2834760033
aI3240956554
aI21064216
aI2538399756
aI761422278449954816
aI101168523
aI856447796131581952
aI2686979763
aI777560543263547392
aI787555248546123776
aI771604118171373568
aI877263594194444289
aI17058358
aI825494878633156611
aI4662245564
aI771554280603947008
aI771552018037026816
aI878847102339567618
aI2200654678
aI878963676543430656
aI118700985
aI3181702105
aI57886888
aI71801682
aI2473344169
aI241375871
aI812547903633772544
aI45487750
aI833629172
aI236881433
aI1591314481
aI418741777
aI175794140
aI1280987059
aI871657701490790400
aI450388799
aI40224604
aI2889373832
aI828228022222336002
aI439695680
aI439693062
aI439691705
aI439689967
aI1008438564
aI2473972436
aI3601435454
aI733277382
aI877234990869876737
aI109775098
aI2786344499
aI864057108181987328
aI829472415302504449
aI876676365289836545
aI878505618499403777
aI2846557047
aI2172635040
aI224327101
aI3463111153
aI1427990965
aI878906693710753792
aI878900341529395200
aI142200327
aI88743606
aI876861546101694464
aI711108256559550464
aI568259288
aI746146059114545152
aI763066671179309056
aI860590435621908480
aI633010914
aI519307869
aI865091861119193088
aI1086978494
aI3302995812
aI878522115892289536
aI820365074359525377
aI842690139285569536
aI867948555775901700
aI878474535921516545
aI1472869790
aI19272653
aI877119375823609856
aI878874576289120256
aI867659284867186688
aI128981403
aI22277800
aI1867087471
aI2228073174
aI469359490
aI872736190570479616
aI844198742022668288
aI720411945677885443
aI989932147
aI779491669343293440
aI4673918966
aI318704353
aI2812990770
aI133241705
aI345351780
aI863465520934264832
aI865274446130630656
aI65410408
aI863251267900104704
aI196299349
aI782795975903449088
aI4861822254
aI173037775
aI878779789087096833
aI4091551106
aI53608899
aI3007418588
aI1351495634
aI844594804952567808
aI877324665068240896
aI298947108
aI88171050
aI810186366055157760
aI82226362
aI831732179319320577
aI721368131302793217
aI820731492787691520
aI2154461958
aI20945935
aI90227162
aI860280692114169856
aI866867513983811584
aI2238497446
aI1908068336
aI862893262713090048
aI152480850
aI55991863
aI878719748686712832
aI83638417
aI711657427125596160
aI236153298
aI866919191965835264
aI1454318318
aI748188493332025344
aI712022308106473472
aI382089531
aI140623281
aI50834551
aI296033400
aI19117029
aI1495384308
aI1424536638
aI73995026
aI241739464
aI125697961
aI391577101
aI82614542
aI853466889074421761
aI875195626207588352
aI88300869
aI878719825077555202
aI878654562160324608
aI832543214
aI878718370769653760
aI821798021579018242
aI477574749
aI44044548
aI878671749943971840
aI55801618
aI759705686
aI844209139483983872
aI109297546
aI90709734
aI861335021109596161
aI455012462
aI1242329072
aI249838619
aI116207543
aI878699659727908869
aI877718196978991104
aI2197255560
aI860441624488181760
aI2300837678
aI1374797473
aI253240060
aI868933801531117568
aI2940542095
aI807891327904055296
aI270220674
aI917372390
aI167763242
aI588151250
aI3231916069
aI3792004395
aI809437010922442752
aI596567958
aI2497452184
aI762295751384797184
aI762783238129614852
aI837866758874726400
aI3295396902
aI878150703725805568
aI25801643
aI872558781766541312
aI788340203265994752
aI48470071
aI1559550806
aI2825542274
aI48727459
aI221035842
aI823252454846427137
aI980235876
aI371380683
aI3431145875
aI1480694766
aI340441529
aI863105886
aI585457336
aI4586225479
aI45765143
aI423952705
aI83674733
aI3828203837
aI2881047583
aI873949225247232000
aI15974299
aI72597185
aI1553022799
aI878643788104814592
aI65625693
aI743627824171388928
aI792040142827622400
aI878387806267166722
aI773167098700759042
aI863009791492411392
aI69631104
aI268829324
aI838714598953988096
aI768141473229463552
aI727660117907345409
aI3434006669
aI2291090637
aI2728936160
aI67665836
aI142780631
aI878088972026617857
aI745541016195727361
aI3255172640
aI865891380765351936
aI1338915798
aI822143344260300800
aI293411927
aI15121075
aI747192020
aI836591826
aI841343754053263360
aI2917283864
aI104229838
aI333620899
aI2534613739
aI823759503296438272
aI225078021
aI2321699138
aI875819839268376577
aI47154331
aI757868227288588288
aI1691412914
aI878240805835522049
aI990907226
aI14544795
aI295620288
aI322813445
aI798180716924182528
aI858382081168216071
aI2383560891
aI4248885195
aI769841744334557185
aI73858759
aI1221280279
aI3087015251
aI887065958
aI3318464156
aI862584720218968065
aI140129277
aI4275151823
aI874252353456689153
aI225462172
aI874650334668259328
aI709005540
aI832949403916840960
aI2462010806
aI778987095629017089
aI411432366
aI704816291736100866
aI826124195679449088
aI103497151
aI2646844919
aI4599428413
aI4155678498
aI2471922704
aI781164209337925632
aI2360969682
aI873230838674190337
aI855498635848581120
aI203799936
aI878027460754890752
aI3725311578
aI876083623711174657
aI731312957758443520
aI828898009408737280
aI878529015417630720
aI823188086779588608
aI243298012
aI345790052
aI704621915059703809
aI823172010314346496
aI823171035117690881
aI874016025800581121
aI1026834636
aI337142680
aI632721386
aI1949905922
aI762920344776740864
aI757769031038431232
aI853602665841926144
aI740057829634117636
aI556430002
aI851398358518308864
aI2991464835
aI286943973
aI835669290896379905
aI839806674726600704
aI875473676581314560
aI829158962750640129
aI822801791213391872
aI822801412136415234
aI80896872
aI705376478536404996
aI822799226115473410
aI822797945514754048
aI88163139
aI3307478799
aI806465009198845952
aI822784822074437636
aI889236476
aI822784443622395905
aI822784108967268352
aI383387250
aI732165522175983616
aI822774608310829056
aI877465375453003776
aI878485739729768448
aI1575374198
aI2522953086
aI2647149886
aI822762194081169408
aI787565764530278400
aI821391278101458944
aI853179471104552961
aI2566730594
aI822752412574154753
aI104796715
aI2519066757
aI819531272989134849
aI135503466
aI163671719
aI825161548675051520
aI1228804213
aI820280612556673024
aI820280209110749184
aI820275315712741377
aI4021524653
aI820273661290496001
aI625222310
aI820271399419793409
aI878460862188724224
aI820262888900153344
aI874037146855886849
aI820260706515681280
aI770829087862624256
aI198598305
aI54702402
aI123490063
aI872001219996262402
aI195185503
aI4418629938
aI820250975231279104
aI822795357276893184
aI850050042593517568
aI822792465887305729
aI262416308
aI8420292
aI296802859
aI822768606177955840
aI776567394567327745
aI1553635022
aI2884853222
aI878161232175349761
aI822758739258130436
aI822757841823940608
aI822754287771996161
aI373617399
aI822745545328377858
aI716584904574668800
aI826850546883710985
aI779186565314584576
aI384306396
aI820278146989637632
aI820277101584519168
aI302297383
aI354049083
aI820269158134726657
aI820261470789189636
aI371776997
aI820258833528258560
aI820257974761312257
aI748961960465604608
aI810230444
aI762962712867512320
aI856681638553677827
aI153025653
aI835754598405029888
aI820232942026797056
aI69659226
aI395771742
aI327964256
aI875970140164112384
aI2819786284
aI1073699412
aI877312650299842560
aI2161993176
aI745477932802408448
aI34032457
aI801608644785831937
aI78119009
aI602157177
aI829818381666758656
aI50114746
aI876266404563087361
aI2655078254
aI41252264
aI788313891923197952
aI23241955
aI869822459566059521
aI19301926
aI2980452803
aI42351806
aI1197925676
aI1236436718
aI347461881
aI836303717980909568
aI105526751
aI158008645
aI2158874420
aI18531374
aI878070116377931776
aI43641550
aI587596233
aI742246362729873408
aI1853226920
aI869610632
aI220928686
aI710524482797047808
aI813049665792933889
aI74470246
aI878287598749458432
aI479018475
aI874075997926289409
aI67847947
aI846240805
aI872825933719318528
aI2328098263
aI881699994
aI390936953
aI878347252363821057
aI32377887
aI904770823
aI156188706
aI865796506263052288
aI1449244032
aI875130253412270080
aI3225382916
aI173856979
aI874457052546031616
aI878279621300686848
aI877971703858700290
aI878323897086615558
aI760372029208002560
aI14248194
aI877675935855673344
aI4404621560
aI4111436842
aI868242049363038209
aI838707208405811200
aI3095858967
aI4817543141
aI729419174255144960
aI868103855007039488
aI1025224950
aI877246558286348288
aI878015902314266624
aI793448910333288448
aI735182660562100226
aI878296552804110337
aI740068323937783808
aI736186801887547393
aI878300204780441600
aI543354200
aI343767321
aI4424123173
aI3405560229
aI804014621120045056
aI50379946
aI846474205512318977
aI970095727
aI141148272
aI2320649654
aI31043276
aI464432164
aI277485938
aI744859416227352576
aI35815155
aI870388576722309124
aI449536821
aI856917372367654912
aI877916108539482112
aI153828323
aI38501661
aI17605945
aI45852742
aI877547997193785344
aI877551168209145856
aI3079209838
aI722861816532045824
aI702494022531747840
aI2813073330
aI33574700
aI388303482
aI876260622505312256
aI707524551056367616
aI878277024598700033
aI849712705435045889
aI13990042
aI2164988469
aI906385129
aI173929579
aI204527555
aI710775469835051008
aI85399062
aI864511966521565184
aI3305971838
aI3675763461
aI1457511187
aI877172712262729728
aI868004728294195200
aI268558533
aI847883725966893056
aI830132424206123011
aI306120097
aI878250377019314176
aI93433244
aI876034499922022400
aI51196561
aI150455610
aI1286728830
aI730578590136340481
aI878258228252950528
aI3386204225
aI703931228832079872
aI1908138187
aI3707407995
aI69745714
aI192006914
aI711052732811993089
aI65407900
aI3131557030
aI482043755
aI3577460841
aI65898229
aI1350725406
aI483964177
aI4909553478
aI1937258899
aI878248124694790145
aI728448104194658304
aI1633479734
aI878241596512358400
aI763778317363257344
aI42639662
aI876341094996422656
aI4003171873
aI782152370440572929
aI821722843
aI258401518
aI3004133231
aI3637894574
aI103991470
aI861139038442598400
aI3285755682
aI334153190
aI874919246366638081
aI210829158
aI310161542
aI861516512711950337
aI383244600
aI253993651
aI876501748407558144
aI562891010
aI521043351
aI539826857
aI56276584
aI555143380
aI2731559193
aI866873121927643136
aI725452594349486081
aI370641253
aI768318947108200448
aI2707279423
aI133191658
aI2355020995
aI595629328
aI3075843529
aI65506354
aI246559862
aI1665002047
aI820623661187076096
aI4241219116
aI862262377856720896
aI4488752717
aI2722837324
aI853957242848239616
aI2807920856
aI4218387433
aI473108347
aI1194721213
aI275692433
aI4036054515
aI789378155697975296
aI855116929807331328
aI274072582
aI862030467415101440
aI2883640505
aI4379976793
aI1423007204
aI876075999221264385
aI2538298381
aI183682950
aI1319183916
aI629210429
aI3439105402
aI2149771639
aI869194286167871488
aI108898495
aI532912856
aI3399722746
aI781629224
aI111592733
aI845859421
aI3459295517
aI275542584
aI2762134725
aI805827504246235136
aI850809002388844547
aI2819896643
aI282820646
aI199780069
aI3001736777
aI973630722
aI342844350
aI1709915652
aI557315676
aI4798997456
aI2367459639
aI3234433566
aI3346411769
aI571548847
aI28549574
aI290632492
aI772375578460631040
aI2909976757
aI2954702164
aI1652859036
aI855827714674221056
aI63237946
aI862569560578416640
aI2817180079
aI788870342
aI832300932650119168
aI2793719788
aI810552973030031360
aI3718067061
aI748124043782479874
aI877426296984182784
aI3016198278
aI1903778851
aI110466834
aI255804019
aI3321683711
aI872190246
aI1515302461
aI1269250248
aI4387239159
aI875927252340318209
aI785422033903423489
aI874840918209286144
aI91776457
aI384214478
aI875928948881928192
aI805464934553370625
aI133916630
aI866801724220203009
aI826475479444000768
aI238050291
aI333981922
aI860040371434209280
aI865137626528890880
aI848816112787533826
aI757318998
aI841887148928323588
aI3044636157
aI135431196
aI743375478975717376
aI771880223164010496
aI850779204635381760
aI707610425509199872
aI866833493589807105
aI865397147520311296
aI862496312289144832
aI813643538776793088
aI1665096469
aI135972206
aI243501121
aI720570433049882625
aI874873021663719424
aI843035621908135937
aI2644664757
aI1044143449
aI3105320089
aI764154196639768576
aI847030538313515008
aI4842525001
aI801398885428170752
aI1448047092
aI3071671341
aI2566522742
aI69647295
aI55807566
aI734792964166258688
aI613786228
aI4895446145
aI296110679
aI3978450386
aI764102829816553472
aI4057537398
aI870259390624010240
aI833953874159529985
aI287136535
aI445143548
aI1052213767
aI432535300
aI16010845
aI1641767917
aI432501734
aI432496392
aI838631659452968961
aI2496678563
aI288710620
aI112944696
aI40215839
aI143277071
aI840434742780710912
aI864310093914882048
aI439697083
aI870705414186323968
aI113445801
aI848921448
aI3332963674
aI226475266
aI397157326
aI840517417122037760
aI158354918
aI773521593775558656
aI2339197058
aI2815149142
aI782862235
aI3090681631
aI1268814056
aI752957569
aI878113844626825217
aI618194755
aI704308029320249346
aI712726358909169665
aI188368226
aI18158637
aI733063818046234624
aI868274071
aI866501602114281472
aI185135876
aI438867218
aI863105115535704064
aI2470704355
aI796804705695338496
aI832536062681612288
aI850340548485533696
aI2771335854
aI4802587517
aI4677103010
aI886528027
aI841334567101435904
aI914285960
aI606953660
aI171186789
aI24909650
aI537374061
aI866599643374903296
aI450379269
aI542797583
aI3422640430
aI852522025792884736
aI766305423930626049
aI714697404
aI4632644172
aI2391889623
aI813652268671234048
aI400955414
aI264796928
aI2717418725
aI859029041143324672
aI555745262
aI2998324278
aI864343261032308736
aI532620768
aI539112979
aI1371223142
aI799205498838884352
aI910856132
aI75290513
aI1128084829
aI117342441
aI1601292590
aI812185638560759808
aI849953176992202752
aI845928792245878785
aI874708313681866755
aI2896343368
aI4906167634
aI3152230418
aI816222944586125312
aI743365010982735872
aI7104402
aI1365874993
aI1480545054
aI3263133962
aI827093117908156416
aI860464138648043520
aI564359503
aI2616775332
aI752819719
aI2303077885
aI4681671379
aI719722096318947328
aI872395578063306752
aI188497962
aI146089873
aI588329206
aI47914203
aI3956181682
aI3333900429
aI782918997545070593
aI290927640
aI129094298
aI141522987
aI84780106
aI837357606289170432
aI720719736724668420
aI394654086
aI3010074553
aI820619903182979072
aI3823041612
aI2194406069
aI878116686766985216
aI1701555246
aI798179718
aI875977777719123969
aI755353669470531584
aI1127996600
aI1652159772
aI291826743
aI2562898362
aI2920849814
aI297021964
aI875725120546906112
aI3238605322
aI289902370
aI869193901978128386
aI3238433484
aI1244480269
aI864439733140819968
aI2401168021
aI3147906986
aI156589296
aI1570665145
aI773039053365125120
aI1043871078
aI2523426096
aI135998406
aI728243456389337088
aI1577480449
aI828131637527318528
aI3739117038
aI147856707
aI3280185546
aI774919079903825920
aI240464467
aI2979248369
aI41691561
aI975319382
aI1568401705
aI1874720952
aI2243677944
aI2407549882
aI828397858869108738
aI316064140
aI3095957605
aI838163883659563009
aI570964471
aI336168651
aI766877719636353024
aI3284038308
aI870949214825701376
aI92006063
aI836887528665985025
aI716016281821036544
aI2829436554
aI751489995920306176
aI4279997714
aI146971744
aI262464192
aI231550337
aI853635505
aI868734833563803648
aI432148521
aI819251580662906890
aI716331600909312000
aI438902455
aI853933297
aI290363647
aI869455429251678208
aI3727361594
aI347496597
aI3199883469
aI811662908731977728
aI747744550597312512
aI811166897576284160
aI82282850
aI722664932861472769
aI859741144133111811
aI805087059941715968
aI81169133
aI2491971474
aI351178821
aI768264110257545217
aI2874958985
aI154081203
aI767864722918178816
aI3716086333
aI775564309736718336
aI2592328334
aI4451688941
aI357908086
aI1604721138
aI877562008316526594
aI1650410970
aI1440604783
aI1308076200
aI4662694167
aI409091584
aI607767678
aI838378829026590720
aI388626256
aI1078091990
aI866757191113551873
aI82973954
aI1126197044
aI812614010273021953
aI420532603
aI336763430
aI796841349047689216
aI247443859
aI857713471189913600
aI474209397
aI2909125723
aI3182132938
aI360140614
aI223435814
aI2343531804
aI1023675464
aI65535780
aI41221138
aI157950001
aI866719407489273856
aI318501717
aI720681992132628482
aI861644576796405760
aI4466694441
aI3132030142
aI23589303
aI706879027856932865
aI15204191
aI2434934246
aI2217031903
aI1553003270
aI874780070979698688
aI186232438
aI2404859053
aI856300484554084354
aI512365509
aI153067727
aI872465358367711233
aI520847339
aI298413486
aI1329930176
aI704786908669411328
aI362235114
aI251281455
aI17368742
aI485313535
aI4186466533
aI263819105
aI2364288900
aI84050536
aI445836498
aI874904227616894980
aI92028647
aI876390636278001665
aI851295759194390528
aI270064962
aI19248567
aI489476455
aI737382576864665600
aI869727200551022592
aI533623562
aI728420454650675201
aI850409417283600384
aI731959048879407105
aI142922828
aI714031037131530240
aI866055580825391106
aI872599079188144129
aI217826893
aI878016933035212800
aI378328746
aI1460252858
aI278350351
aI1021296192
aI1123350757
aI878015261462454274
aI2859819250
aI67697136
aI761989834177150977
aI400276341
aI221415913
aI3333818740
aI262789101
aI3377996104
aI749008072668880896
aI2543177461
aI4802073812
aI2786555068
aI3313500638
aI768510953080156160
aI897003804
aI329935027
aI854689135046651905
aI468832559
aI2495797124
aI537203648
aI3045513520
aI765450299502891008
aI855406372669837313
aI63761298
aI2757724825
aI2312863080
aI2889805547
aI4885041370
aI854611011382513664
aI364185269
aI364939006
aI877994818810638337
aI4559816367
aI822747689985208320
aI287903797
aI1048974373
aI1893304698
aI50321046
aI276508653
aI858253263573053440
aI49505429
aI712294859365818368
aI1170182234
aI204012829
aI179135867
aI2849085933
aI483886178
aI3232144447
aI833006173427167233
aI270610231
aI63020885
aI133473580
aI393336725
aI350431433
aI2491595066
aI428987522
aI365445618
aI256528602
aI149167237
aI777618546159341568
aI877972217438633984
aI355829029
aI4831692020
aI136677219
aI1077231757
aI40477907
aI2890789892
aI70903112
aI853988509656514560
aI479505874
aI3989250323
aI802945992475758592
aI1275864608
aI25865834
aI1340322332
aI91201827
aI539371118
aI231988288
aI147730770
aI835197885406928898
aI408805304
aI873995762241343489
aI405006410
aI792523124596170752
aI2392940529
aI2899569920
aI4739265428
aI3077284235
aI771390733
aI4867724267
aI87777215
aI2761639401
aI864845300200071172
aI9764972
aI3322952242
aI873500994730024960
aI429854229
aI877910285419524096
aI2885494564
aI88851783
aI876203976684974082
aI775968150
aI31314168
aI839011740448763904
aI32363034
aI138828718
aI3056976748
aI877964108120850432
aI27358623
aI64951437
aI2646563268
aI877960416088866816
aI1278403520
aI704225369382100992
aI814400133789982720
aI284170170
aI1320216960
aI32273648
aI296133316
aI877909105549217792
aI752931675890253824
aI872968274706747392
aI879808741
aI347128155
aI764660654
aI820285032015138816
aI588966980
aI790908870965202945
aI2563630920
aI215590666
aI132669786
aI1284270848
aI827158493631303681
aI518427038
aI102798631
aI61025151
aI2203025852
aI181979018
aI866239060972642306
aI736357467827765248
aI634503493
aI225615886
aI3839421081
aI96268773
aI877223979144142848
aI38799061
aI877935474437959680
aI51503466
aI2591650340
aI2988117365
aI836278121385046016
aI3554517616
aI710969136977993729
aI836666841296695300
aI57408202
aI4728385874
aI839952939049435137
aI2484556338
aI4352978735
aI67967282
aI1348123826
aI293840224
aI868867507901284352
aI2336759226
aI781338919
aI203718749
aI489893238
aI877929609869873153
aI858016831659008001
aI2748752730
aI791339718302699521
aI308806468
aI333239221
aI90190822
aI524649249
aI3164271889
aI763257235925528576
aI1240184017
aI36387384
aI877934503326621697
aI859804527041560578
aI195381307
aI872734738233962497
aI832548832214872065
aI319228425
aI329573535
aI788267639382482944
aI128493182
aI865173631588069376
aI872839520525438978
aI779944581760561153
aI154309258
aI856022185160429568
aI392809671
aI26327592
aI228985934
aI339635422
aI758384962554957824
aI25560338
aI779650279155302400
aI875360226903326720
aI569500512
aI119515904
aI874330635556577282
aI56956301
aI841605403679084544
aI1696401074
aI1752550866
aI82624287
aI142891322
aI815769770448429056
aI765484799079448576
aI865413523672776705
aI4210440262
aI397186484
aI822534049155653632
aI235421123
aI732171442738073600
aI873894798293319681
aI619873962
aI869947536647356416
aI3194629273
aI808333746076123137
aI610995903
aI416187355
aI875750342100746240
aI234672926
aI877441709256445953
aI24156212
aI115133056
aI1853851914
aI232802611
aI922958486
aI760533685787656192
aI64219245
aI179780822
aI26109077
aI1921334965
aI853100640679198722
aI392283523
aI868483194353537024
aI309647979
aI847158247589134337
aI15612771
aI52725709
aI553541973
aI1364799512
aI3340521135
aI89804991
aI962457979
aI36835631
aI137859657
aI529386312
aI2951188261
aI1681100078
aI810910796628815873
aI2504503896
aI377584375
aI857652037584080896
aI202097446
aI867369799952867329
aI177154987
aI212582029
aI877516130088341505
aI569760725
aI199722507
aI2782864488
aI4783784911
aI234846089
aI73093094
aI484196991
aI1345399195
aI2912431312
aI4727240659
aI145622427
aI877902639421325316
aI2491422734
aI3072602481
aI309472883
aI818449700168663040
aI1923489708
aI1609931107
aI2197075291
aI872136694262358016
aI39229069
aI876097073497595904
aI860634380733120513
aI940899006
aI802075997382340608
aI2485635734
aI32482178
aI854246763422785536
aI382771636
aI94892081
aI135929056
aI4861288329
aI873988025348435969
aI529234945
aI743524892545519616
aI47653216
aI824184506387206145
aI4507152273
aI394807972
aI844620985714327553
aI96791889
aI869934156112740352
aI549091218
aI772308269247242240
aI808791686113558528
aI841350008914006016
aI2333145316
aI626901421
aI870084806947872768
aI804322525194948609
aI876117124246364162
aI769494647559294978
aI275418102
aI736789820836581376
aI65885402
aI3959281288
aI329115624
aI1484249588
aI298909335
aI806374457992474624
aI48265946
aI4577366241
aI837443573763227648
aI341112677
aI791916924288532480
aI1093211832
aI2889599143
aI560900287
aI166509193
aI67335272
aI134486378
aI864825984608063488
aI1465570242
aI585900981
aI57015675
aI2913487168
aI4037961807
aI2778488450
aI750703374
aI787549032
aI858839423512846336
aI788998587833286656
aI1977084450
aI877862110088376320
aI71096306
aI26404842
aI758660930418999296
aI182149359
aI166988014
aI1234025053
aI835323018
aI380518418
aI740633621288083456
aI733921566841528320
aI74850565
aI2433635838
aI877042652952240129
aI211908920
aI861912028918812672
aI833122410
aI145496271
aI1144825314
aI2911994353
aI149224108
aI176739974
aI872917837265948672
aI873136766789632000
aI849258242488373250
aI2888964182
aI818615354125598721
aI3017126234
aI84462231
aI868402796294324224
aI962184194
aI1143558986
aI2280795741
aI822867776993918976
aI279213499
aI839873570
aI313412211
aI869875460976529409
aI2853464685
aI876767981929472000
aI2272646329
aI243199811
aI73010489
aI873387658021453829
aI850572944111575040
aI838945081
aI4364943312
aI358845063
aI2604668930
aI818430908097302529
aI814341692887334914
aI841205403883048960
aI58415800
aI46885534
aI630834865
aI875957920701218816
aI888348937
aI877621381982298113
aI2900494483
aI2568352237
aI1714768490
aI19144897
aI2378080068
aI876801538043334656
aI3439929640
aI313212425
aI234019226
aI235234914
aI4303287993
aI2717939232
aI2302667388
aI701477900894265348
aI865136870702841857
aI1089478561
aI1286518526
aI3199347835
aI877850572681916416
aI2834745173
aI4105363216
aI861954620528238593
aI2459386727
aI3219000288
aI306663167
aI3806273068
aI1332529362
aI549354610
aI882463321
aI244670726
aI46122335
aI2282361954
aI2309537647
aI2593033674
aI178729465
aI870937993929830400
aI866987357593116673
aI206725163
aI75191934
aI153317206
aI364860070
aI4621354184
aI362289904
aI1073199439
aI804620288428228608
aI3354692537
aI782494301175644161
aI375072375
aI89969464
aI3130224024
aI840185308125655045
aI703635422765850625
aI870794256696455168
aI284443722
aI2594788357
aI4157352793
aI3034516249
aI2799245772
aI757834042184048640
aI215503683
aI769151046773899264
aI2216513199
aI55156883
aI3221217576
aI212137276
aI91152861
aI849866817036107776
aI64995400
aI709409290956750848
aI138490833
aI140769247
aI875295321840078848
aI2730538977
aI55185919
aI2330421198
aI737501203647496193
aI961877046
aI751693082073104384
aI379961480
aI2983754012
aI786237291844861953
aI781853303319699456
aI790517235848798208
aI842425292467630081
aI185947393
aI823978196072886273
aI863077537366278146
aI773794857986953216
aI562067787
aI869805281659637760
aI3365625197
aI875281247748149248
aI51047169
aI315930988
aI3427960133
aI2394329053
aI14481475
aI2201357095
aI2647390753
aI876554024023183360
aI832615692381802497
aI382750270
aI795911141591486464
aI784040705308098560
aI4035325033
aI845566861760741376
aI847669408965181440
aI875714297846009856
aI841985076766334978
aI1744456387
aI866569039396478976
aI2323993237
aI846338615034687488
aI3358110299
aI252420471
aI869906732410994688
aI788115598614069248
aI1743036398
aI3255839470
aI1853489222
aI2195711658
aI830299080651739136
aI3102897527
aI825853060207542273
aI1026576745
aI1066636830
aI718412756693549056
aI1063231603
aI852963260458389504
aI13101842
aI420408101
aI752777189234470912
aI46324385
aI819469491667107840
aI869097579761483777
aI4127004434
aI136592416
aI466666968
aI800258773
aI832574264490475520
aI3024151321
aI704556098741788672
aI2837995313
aI4769840472
aI345280320
aI872688522829774848
aI2819995880
aI1124441790
aI850573465
aI442873710
aI777470761254555648
aI3636218842
aI54543920
aI864743836722921472
aI3288275345
aI773423377814020096
aI3382834755
aI18567278
aI873074009725743105
aI1327456538
aI1555762740
aI747953562693541889
aI770308192320430081
aI559430741
aI805633961749712896
aI2380295090
aI2358223722
aI816176868059729931
aI874529604412813312
aI2988769620
aI868486511498584064
aI4734161354
aI4861536091
aI17628009
aI869153872186671104
aI38408490
aI869098927047430144
aI794149839982526464
aI874126555227848705
aI877636841855471616
aI323627962
aI773782342871687168
aI768910828284186624
aI2816953440
aI2579855394
aI2997968168
aI423845197
aI876310470289874944
aI60874490
aI369874935
aI840472450303447040
aI871323770329464832
aI732962989301620736
aI750922634
aI2495506999
aI865949260621135872
aI873149525761904641
aI1200316220
aI144417070
aI862948496961191937
aI299711789
aI50976304
aI851181351097307136
aI811380630
aI630373339
aI824233604641198080
aI2515340564
aI759215000
aI169378128
aI2776162230
aI424163084
aI3759135682
aI806103049672462336
aI610053457
aI3599479694
aI833884315054403584
aI873540189330620416
aI839107863649927168
aI869212750446252032
aI262354280
aI480320616
aI532905431
aI1499002153
aI754912548550381568
aI861517957037535232
aI3278244714
aI709007758092148737
aI706107011742695424
aI222427162
aI4447303665
aI1678850286
aI835360435
aI309830213
aI479555969
aI2510032435
aI877763044788633605
aI766243768513204224
aI787907328205094912
aI66215241
aI31601455
aI816526760
aI877457711494909952
aI793885034222673920
aI2341775854
aI90875860
aI704951739762536448
aI255815910
aI3229554258
aI50021887
aI876470785816240128
aI799155969569783808
aI617754966
aI805721332243542016
aI929079702
aI3037897850
aI4338435315
aI104409890
aI3234849384
aI336324469
aI531124782
aI366002379
aI1434927914
aI862538308290727936
aI1703867672
aI868863520389124097
aI1533084624
aI860034832276922368
aI14132797
aI720492295146094593
aI163271692
aI870199041648242689
aI2537932404
aI233875598
aI4866200506
aI230169959
aI2750428472
aI761418090122874882
aI704531983469252608
aI3420738341
aI872420604237946881
aI713674130642472960
aI2482448684
aI768734837121306624
aI855366989535035394
aI183167927
aI4785019370
aI818699663477915649
aI54362869
aI2847696949
aI2403557983
aI754754774520791040
aI2449282994
aI1229046266
aI862126905260113920
aI2831049471
aI4185972089
aI869058513083006976
aI344822891
aI1160375604
aI1282320492
aI859778488684826626
aI1500569239
aI273030269
aI849597424796565506
aI1283713873
aI3085762546
aI848887824506130432
aI125061516
aI100425627
aI1487286840
aI193988816
aI877743560245874688
aI3879222625
aI510770733
aI2529778532
aI796832992899502080
aI202204582
aI786429290623545345
aI39534068
aI781793341809754113
aI3236355660
aI800613038906687489
aI831419606845632512
aI3852411994
aI871106209213960192
aI782931316568240129
aI1844708562
aI2304149503
aI220830017
aI307939907
aI869861993481736192
aI3226068104
aI240771984
aI219699147
aI865160043506745349
aI782093047811051520
aI624447104
aI4662422263
aI1895305580
aI3912670273
aI760348254487867392
aI485036999
aI2214372721
aI2830462855
aI363885152
aI3312032158
aI409065501
aI877730474738757632
aI825547733335289856
aI812920539199090688
aI1605497167
aI858751117496246273
aI844982582341197824
aI1226565745
aI496378022
aI811499062683987968
aI728233371239735296
aI3306151887
aI116823227
aI85779574
aI813429799603568640
aI2183854812
aI752692126748581888
aI2851521330
aI2747309686
aI1919958948
aI728712383061884928
aI728516672361922561
aI394660773
aI4129799014
aI1428339038
aI266923870
aI506454474
aI69623142
aI729498457178820608
aI872292547481280512
aI385462734
aI2330574295
aI908213168
aI859792233502883840
aI274451260
aI3234072240
aI4419066192
aI61306780
aI1223564598
aI72772786
aI837745877695418368
aI515638158
aI2957873767
aI876440510356889600
aI150447460
aI815938979761717248
aI2542657352
aI399906913
aI799741566076059648
aI720484984189018113
aI4083579088
aI812638632838393856
aI1380067446
aI357164074
aI877695413758836736
aI811240987074904068
aI56201790
aI25722278
aI113550172
aI120091215
aI395725573
aI741025273
aI1306656769
aI361350438
aI138926407
aI3202742213
aI790083666177253376
aI714751442
aI851424063868223488
aI490986440
aI321917282
aI3050208103
aI114098886
aI811565779229360132
aI746262774356008960
aI724328941
aI858115244383711232
aI874145012
aI14844642
aI627924486
aI112850120
aI184385654
aI18526792
aI242965700
aI366207176
aI867204577
aI66476766
aI2969041061
aI877694814233534464
aI56880603
aI492121438
aI569197644
aI835146574003044353
aI1467948805
aI138609273
aI142821898
aI2199956496
aI376541841
aI803398644443607040
aI137688028
aI827299449135366145
aI3244832188
aI825762421
aI762566621709869056
aI169982360
aI1016558947
aI4382276734
aI64004671
aI245622008
aI2301907801
aI227070761
aI783300695718039552
aI22255547
aI875050140607893505
aI4872748450
aI2940788144
aI1496253062
aI2660034307
aI4442637461
aI204513121
aI354509791
aI174896717
aI2221312140
aI600753379
aI44254798
aI1115580055
aI2778931935
aI723209767
aI121445781
aI863921567859957760
aI611082232
aI745678904472514561
aI876096479236161536
aI1679806880
aI2940342583
aI848271358698156032
aI598806937
aI302978183
aI419273324
aI854921512733646848
aI65724723
aI3808532721
aI324821208
aI725300534081667072
aI134564197
aI2598225851
aI111991517
aI115272011
aI4896135808
aI495231869
aI13601582
aI153626081
aI41294526
aI2801163514
aI2927324773
aI728569329168486402
aI4781954236
aI568455402
aI1492875104
aI842750545295298566
aI362045565
aI1380038030
aI531630394
aI320511451
aI4595210066
aI193528299
aI505503295
aI278792368
aI1278537960
aI768300246
aI3048205865
aI843864234861715456
aI877625404818935808
aI95509252
aI525359078
aI4201274489
aI573927985
aI517219049
aI993764810
aI3343195702
aI754314328426283008
aI2884715341
aI863162988538331138
aI86805649
aI238494478
aI245866098
aI199706822
aI877645303020736512
aI877184546617397250
aI47359145
aI4063472182
aI854163285125603329
aI22427803
aI70829374
aI853433295811555330
aI73409389
aI223302591
aI2945063985
aI476621617
aI294922113
aI58458117
aI570602537
aI1538569051
aI152927825
aI14922725
aI854685141091876864
aI204984706
aI2464732584
aI80894164
aI127093773
aI303480564
aI2532547053
aI4041710415
aI2791334298
aI819644617117278208
aI864846229334880256
aI179597905
aI821075838762303488
aI616522588
aI731555680465911808
aI56993252
aI91389245
aI382111102
aI259540012
aI776561284091346945
aI2947594732
aI112331469
aI48377244
aI789397931400925184
aI65536095
aI2928895292
aI2548080156
aI2509272054
aI121889122
aI132237766
aI98938968
aI2777345360
aI1964763770
aI877622153301991425
aI993333744
aI1856024869
aI3195048311
aI806899358406848512
aI489207099
aI619051799
aI3069966898
aI708726561776730113
aI291735265
aI877584091222331394
aI864068234437382144
aI164442399
aI826755024889995265
aI813172573437591552
aI733710373354901504
aI49666693
aI31441718
aI620717987
aI2750704511
aI402922865
aI751005902564720640
aI21621181
aI4874002125
aI919669890
aI2221313630
aI860316414887985154
aI70503762
aI517490472
aI166637803
aI857288712127950850
aI869625988157767681
aI870000429974798340
aI4090478113
aI1277495215
aI877608082104213504
aI837347073066471425
aI2729698448
aI357304922
aI825416870903762945
aI870087984
aI1643907859
aI818477537256800256
aI816147403795361792
aI877606711711981568
aI2537507630
aI862742713065652224
aI16082018
aI3659205675
aI1128303890
aI231155414
aI816520241660317697
aI263374496
aI2441922858
aI597414310
aI440728321
aI2803925427
aI3099561505
aI391774056
aI3278473832
aI2363574920
aI73526728
aI230568428
aI54710984
aI2889961224
aI863511300709769216
aI3418403182
aI1172471702
aI2387364234
aI312063522
aI48691141
aI877436592805249024
aI419052794
aI746047911029518336
aI1413599174
aI812391965820092416
aI3591627318
aI326007485
aI1452743401
aI860196998883926017
aI1354528062
aI2942118238
aI296576505
aI868831917935779841
aI821950241930776576
aI81662536
aI1693137589
aI426870671
aI849866543647383552
aI772088335917604866
aI695268165505454080
aI968913726
aI3029136016
aI872864988356116480
aI3097879040
aI790945156014878720
aI2889944434
aI2247208097
aI226712144
aI185851235
aI2480182148
aI328446055
aI1378449493
aI854387250322300929
aI2438143645
aI719726492750651392
aI3241495861
aI3231603212
aI449741127
aI266733347
aI317984167
aI3393701705
aI1400212741
aI939672162
aI314325913
aI823545137884057601
aI2905784916
aI385914889
aI2247799428
aI3022035175
aI872841998222229504
aI1094826830
aI16824094
aI740773795
aI818792131779170305
aI2911654424
aI3576375741
aI81919517
aI700324777
aI1364306262
aI392892074
aI128012258
aI287639544
aI803625413742247936
aI1358021245
aI296958462
aI174633569
aI791617175412932608
aI3305522783
aI2870405123
aI1324854337
aI2810530664
aI2934238806
aI96261477
aI735806240262066176
aI551969227
aI1498700490
aI744482162
aI4116657581
aI4776310887
aI2799808604
aI731912740458090496
aI863693294865219584
aI232485212
aI54295973
aI2835006895
aI307989326
aI1433597076
aI201366621
aI229888275
aI817476092730769408
aI763790244026220544
aI47896049
aI298339477
aI741874381433884672
aI472235290
aI178365985
aI2430012396
aI2916779138
aI3226851986
aI4492641993
aI162095659
aI20853968
aI3899255067
aI853105166270201857
aI2185810017
aI1910886391
aI211504744
aI1088098543
aI758420112
aI76840805
aI810678705836228608
aI69130245
aI3292001973
aI850733816293478400
aI291780190
aI836670806759358464
aI86443610
aI2399315594
aI837612309249826816
aI846631670560292865
aI3128645638
aI835152032839438336
aI237060400
aI865256493637095425
aI818736408143675392
aI2382074094
aI1470126296
aI350053450
aI288599254
aI874921719747801088
aI153280496
aI561300222
aI716206916
aI866834611518812161
aI3235438602
aI3303852165
aI508207302
aI2470571723
aI542578736
aI2447594605
aI1827748964
aI3290957751
aI118179908
aI823807402470502400
aI328346422
aI834048641849495553
aI877539791881064448
aI766980232217669632
aI566797332
aI2901743055
aI1309137721
aI877532105961615360
aI86545786
aI3311129966
aI327270380
aI838300638446567424
aI619649125
aI132928363
aI2257756465
aI3295327267
aI772856072
aI1911519926
aI2908153225
aI1224423451
aI542094825
aI2983230628
aI845821728836202496
aI2364163987
aI2525762340
aI1466289823
aI30216909
aI17874176
aI1253307600
aI3685835837
aI275493000
aI214414446
aI3243187527
aI30741884
aI216182821
aI713409336442241025
aI20459765
aI3213342442
aI2272160492
aI600335946
aI66088105
aI847207290570780672
aI217997306
aI877531091657248769
aI844542352995823616
aI840178122326650881
aI3292262316
aI109341351
aI3303813092
aI1577776760
aI2407868755
aI144873926
aI89177999
aI863430738598744064
aI207025685
aI73526145
aI282156772
aI864350484
aI825767920194158592
aI875316816444243969
aI2167604827
aI200059501
aI2816825988
aI771041497642852352
aI3269786448
aI772220454601912325
aI574938651
aI3096568790
aI839996760558821376
aI944820894
aI876967551544074241
aI80167959
aI877521332413530112
aI71224614
aI778129328383098880
aI786916854799499265
aI877517439814250496
aI864902579456794624
aI22939853
aI834107285983092736
aI92076134
aI2386585850
aI2573058043
aI106234398
aI865452971705761792
aI2839792844
aI827481893146918912
aI2322944162
aI297038535
aI129712249
aI175046223
aI4717997242
aI253530814
aI118890957
aI59563119
aI434897216
aI190403203
aI877516896832245760
aI3232421556
aI843768164383121408
aI4318702633
aI794726335214075904
aI3600605057
aI424099436
aI715291680421842945
aI2423268080
aI3619854795
aI526669488
aI2179134002
aI20690800
aI573823887
aI1495525778
aI30215269
aI3240300081
aI275031146
aI2982168513
aI776786462247231488
aI2965786595
aI1936886246
aI812270012475916288
aI197749038
aI609972830
aI1133113801
aI773012499612438528
aI864143239280021504
aI2281686368
aI3548669897
aI3734984179
aI818819875372236802
aI807506614534242304
aI459655508
aI609374773
aI825001078643183616
aI2794368720
aI3636153852
aI834583236005093377
aI169487878
aI864300136746364929
aI209612157
aI355882668
aI83163304
aI2347977723
aI838351223845601280
aI1275856308
aI844950029701931008
aI296129108
aI716257642738372608
aI775775985832562688
aI805943619924402176
aI858663880167391233
aI3199709994
aI742650655
aI2910822518
aI899350962
aI453004060
aI855361215413047296
aI819038388414218240
aI1192866516
aI4559641550
aI337381172
aI858979618375827456
aI135628159
aI155597192
aI2495836820
aI1256322012
aI843768868627611648
aI847872140145766405
aI2352313298
aI4186478692
aI305732541
aI367650339
aI433807671
aI364802301
aI1478646385
aI4002503001
aI36345623
aI4256189114
aI139734366
aI879144385
aI492991689
aI159824896
aI190097736
aI1683657086
aI443892360
aI1305500288
aI384280366
aI26446954
a.